---
triple:          'arm64-apple-darwin'
binary-path:     '/Volumes/APFS/xcode/Build/Products/Release-iphoneos/AgoraSenseTimeExtension.framework/AgoraSenseTimeExtension'
relocations:
  - { offsetInCU: 0x33, offset: 0x33, size: 0x8, addend: 0x0, symName: _AgoraSenseTimeExtensionVersionString, symObjAddr: 0x0, symBinAddr: 0x92E410, symSize: 0x0 }
  - { offsetInCU: 0x67, offset: 0x67, size: 0x8, addend: 0x0, symName: _AgoraSenseTimeExtensionVersionNumber, symObjAddr: 0x48, symBinAddr: 0x92E458, symSize: 0x0 }
  - { offsetInCU: 0xDDB, offset: 0xE57, size: 0x8, addend: 0x0, symName: __ZN5agora3rtc9extensionL25_SenseTime_provider_entryEv, symObjAddr: 0x0, symBinAddr: 0x4000, symSize: 0x14 }
  - { offsetInCU: 0x19A2, offset: 0x1A1E, size: 0x8, addend: 0x0, symName: __ZN5agora3rtc9extensionL27register_SenseTime_to_agoraEv, symObjAddr: 0x14, symBinAddr: 0x4014, symSize: 0xEC }
  - { offsetInCU: 0x9E79, offset: 0x9EF5, size: 0x8, addend: 0x0, symName: __ZNSt3__119__allocate_at_leastB7v160006INS_9allocatorIN5agora3rtc18IExtensionProvider17ExtensionMetaInfoEEEEENS_19__allocation_resultINS_16allocator_traitsIT_E7pointerEEERS9_m, symObjAddr: 0x3BC, symBinAddr: 0x43BC, symSize: 0x34 }
  - { offsetInCU: 0x9F1A, offset: 0x9F96, size: 0x8, addend: 0x0, symName: __ZSt28__throw_bad_array_new_lengthB7v160006v, symObjAddr: 0x3F0, symBinAddr: 0x43F0, symSize: 0x28 }
  - { offsetInCU: 0x9F2E, offset: 0x9FAA, size: 0x8, addend: 0x0, symName: __ZNSt3__120__throw_length_errorB7v160006EPKc, symObjAddr: 0x348, symBinAddr: 0x4348, symSize: 0x50 }
  - { offsetInCU: 0xDB8D, offset: 0xDC09, size: 0x8, addend: 0x0, symName: __ZSt28__throw_bad_array_new_lengthB7v160006v, symObjAddr: 0x3F0, symBinAddr: 0x43F0, symSize: 0x28 }
  - { offsetInCU: 0x10834, offset: 0x108B0, size: 0x8, addend: 0x0, symName: __ZN5agora3rtc9extension26SenseTimeExtensionProviderC2Ev, symObjAddr: 0x100, symBinAddr: 0x4100, symSize: 0x20 }
  - { offsetInCU: 0x10854, offset: 0x108D0, size: 0x8, addend: 0x0, symName: __ZN5agora3rtc9extension26SenseTimeExtensionProviderD2Ev, symObjAddr: 0x120, symBinAddr: 0x4120, symSize: 0x4 }
  - { offsetInCU: 0x10874, offset: 0x108F0, size: 0x8, addend: 0x0, symName: __ZN5agora3rtc9extension26SenseTimeExtensionProviderD1Ev, symObjAddr: 0x124, symBinAddr: 0x4124, symSize: 0x4 }
  - { offsetInCU: 0x1089D, offset: 0x10919, size: 0x8, addend: 0x0, symName: __ZN5agora3rtc9extension26SenseTimeExtensionProviderD0Ev, symObjAddr: 0x128, symBinAddr: 0x4128, symSize: 0x4 }
  - { offsetInCU: 0x10C71, offset: 0x10CED, size: 0x8, addend: 0x0, symName: __ZN5agora3rtc9extension26SenseTimeExtensionProvider23OnPreRegisterExtensionsERNSt3__16vectorINS0_18IExtensionProvider17ExtensionMetaInfoENS3_9allocatorIS6_EEEE, symObjAddr: 0x12C, symBinAddr: 0x412C, symSize: 0x104 }
  - { offsetInCU: 0x110ED, offset: 0x11169, size: 0x8, addend: 0x0, symName: __ZN5agora3rtc9extension26SenseTimeExtensionProvider15GetProviderNameEv, symObjAddr: 0x230, symBinAddr: 0x4230, symSize: 0x10 }
  - { offsetInCU: 0x110FF, offset: 0x1117B, size: 0x8, addend: 0x0, symName: __ZNKSt3__16vectorIN5agora3rtc18IExtensionProvider17ExtensionMetaInfoENS_9allocatorIS4_EEE20__throw_length_errorB7v160006Ev, symObjAddr: 0x334, symBinAddr: 0x4334, symSize: 0x14 }
  - { offsetInCU: 0x11128, offset: 0x111A4, size: 0x8, addend: 0x0, symName: __ZNSt3__120__throw_length_errorB7v160006EPKc, symObjAddr: 0x348, symBinAddr: 0x4348, symSize: 0x50 }
  - { offsetInCU: 0x11168, offset: 0x111E4, size: 0x8, addend: 0x0, symName: __ZN5agora3rtc9extension26SenseTimeExtensionProvider15GetProviderNameEv, symObjAddr: 0x230, symBinAddr: 0x4230, symSize: 0x10 }
  - { offsetInCU: 0x111C8, offset: 0x11244, size: 0x8, addend: 0x0, symName: __ZNSt3__112basic_stringIcNS_11char_traitsIcEENS_9allocatorIcEEEC2B7v160006IDnEEPKc, symObjAddr: 0x418, symBinAddr: 0x4418, symSize: 0x9C }
  - { offsetInCU: 0x11537, offset: 0x115B3, size: 0x8, addend: 0x0, symName: __ZNKSt3__112basic_stringIcNS_11char_traitsIcEENS_9allocatorIcEEE20__throw_length_errorB7v160006Ev, symObjAddr: 0x4B4, symBinAddr: 0x44B4, symSize: 0x14 }
  - { offsetInCU: 0x1154E, offset: 0x115CA, size: 0x8, addend: 0x0, symName: __ZN5agora3rtc9extension26SenseTimeExtensionProvider19OnRegisterExtensionEPNS1_20ExtensionAudioFilterE, symObjAddr: 0x240, symBinAddr: 0x4240, symSize: 0x4 }
  - { offsetInCU: 0x1157E, offset: 0x115FA, size: 0x8, addend: 0x0, symName: __ZN5agora3rtc9extension26SenseTimeExtensionProvider19OnRegisterExtensionEPNS1_20ExtensionVideoFilterE, symObjAddr: 0x244, symBinAddr: 0x4244, symSize: 0x50 }
  - { offsetInCU: 0x115DB, offset: 0x11657, size: 0x8, addend: 0x0, symName: __ZN5agora3rtc9extension26SenseTimeExtensionProvider19OnRegisterExtensionEPNS1_18ExtensionVideoSinkE, symObjAddr: 0x294, symBinAddr: 0x4294, symSize: 0x4 }
  - { offsetInCU: 0x1160B, offset: 0x11687, size: 0x8, addend: 0x0, symName: __ZNK5agora16RefCountedObjectINS_3rtc9extension26SenseTimeExtensionProviderEE6AddRefEv, symObjAddr: 0x298, symBinAddr: 0x4298, symSize: 0x18 }
  - { offsetInCU: 0x1168C, offset: 0x11708, size: 0x8, addend: 0x0, symName: __ZNK5agora16RefCountedObjectINS_3rtc9extension26SenseTimeExtensionProviderEE7ReleaseEv, symObjAddr: 0x2B0, symBinAddr: 0x42B0, symSize: 0x4C }
  - { offsetInCU: 0x1172D, offset: 0x117A9, size: 0x8, addend: 0x0, symName: __ZNK5agora16RefCountedObjectINS_3rtc9extension26SenseTimeExtensionProviderEE9HasOneRefEv, symObjAddr: 0x2FC, symBinAddr: 0x42FC, symSize: 0x14 }
  - { offsetInCU: 0x117C4, offset: 0x11840, size: 0x8, addend: 0x0, symName: __ZN5agora16RefCountedObjectINS_3rtc9extension26SenseTimeExtensionProviderEED1Ev, symObjAddr: 0x310, symBinAddr: 0x4310, symSize: 0x4 }
  - { offsetInCU: 0x117E6, offset: 0x11862, size: 0x8, addend: 0x0, symName: __ZN5agora16RefCountedObjectINS_3rtc9extension26SenseTimeExtensionProviderEED1Ev, symObjAddr: 0x310, symBinAddr: 0x4310, symSize: 0x4 }
  - { offsetInCU: 0x11801, offset: 0x1187D, size: 0x8, addend: 0x0, symName: __ZN5agora16RefCountedObjectINS_3rtc9extension26SenseTimeExtensionProviderEED1Ev, symObjAddr: 0x310, symBinAddr: 0x4310, symSize: 0x4 }
  - { offsetInCU: 0x11836, offset: 0x118B2, size: 0x8, addend: 0x0, symName: __ZN5agora16RefCountedObjectINS_3rtc9extension26SenseTimeExtensionProviderEED0Ev, symObjAddr: 0x314, symBinAddr: 0x4314, symSize: 0x14 }
  - { offsetInCU: 0x118B3, offset: 0x1192F, size: 0x8, addend: 0x0, symName: __ZNSt12length_errorC1B7v160006EPKc, symObjAddr: 0x398, symBinAddr: 0x4398, symSize: 0x24 }
  - { offsetInCU: 0x11B45, offset: 0x11BC1, size: 0x8, addend: 0x0, symName: __ZNKSt3__112basic_stringIcNS_11char_traitsIcEENS_9allocatorIcEEE20__throw_length_errorB7v160006Ev, symObjAddr: 0x4B4, symBinAddr: 0x44B4, symSize: 0x14 }
  - { offsetInCU: 0x26, offset: 0x13146, size: 0x8, addend: 0x0, symName: __ZN5agora3rtc9extension20ExtensionAudioFilterC2EPKc, symObjAddr: 0x0, symBinAddr: 0x44C8, symSize: 0x4C }
  - { offsetInCU: 0x5D20, offset: 0x18E40, size: 0x8, addend: 0x0, symName: __ZN5agora3rtc9extension20ExtensionAudioFilterC2EPKc, symObjAddr: 0x0, symBinAddr: 0x44C8, symSize: 0x4C }
  - { offsetInCU: 0x6017, offset: 0x19137, size: 0x8, addend: 0x0, symName: __ZN5agora3rtc9extension20ExtensionAudioFilterD2Ev, symObjAddr: 0x4C, symBinAddr: 0x4514, symSize: 0x4 }
  - { offsetInCU: 0x6045, offset: 0x19165, size: 0x8, addend: 0x0, symName: __ZN5agora3rtc9extension20ExtensionAudioFilterD2Ev, symObjAddr: 0x4C, symBinAddr: 0x4514, symSize: 0x4 }
  - { offsetInCU: 0x6058, offset: 0x19178, size: 0x8, addend: 0x0, symName: __ZN5agora3rtc9extension10IExtensionINS_5media4base13AudioPcmFrameEED2Ev, symObjAddr: 0x50, symBinAddr: 0x4518, symSize: 0x44 }
  - { offsetInCU: 0x62BC, offset: 0x193DC, size: 0x8, addend: 0x0, symName: __ZNSt3__110shared_ptrIN5agora3rtc9extension17ExtensionDelegateINS1_5media4base13AudioPcmFrameEEEED2B7v160006Ev, symObjAddr: 0x490, symBinAddr: 0x4958, symSize: 0x58 }
  - { offsetInCU: 0x6346, offset: 0x19466, size: 0x8, addend: 0x0, symName: __ZN5agora3rtc9extension20ExtensionAudioFilterD1Ev, symObjAddr: 0x94, symBinAddr: 0x455C, symSize: 0x4 }
  - { offsetInCU: 0x6386, offset: 0x194A6, size: 0x8, addend: 0x0, symName: __ZThn48_N5agora3rtc9extension20ExtensionAudioFilterD1Ev, symObjAddr: 0x98, symBinAddr: 0x4560, symSize: 0x4 }
  - { offsetInCU: 0x63A0, offset: 0x194C0, size: 0x8, addend: 0x0, symName: __ZThn48_N5agora3rtc9extension20ExtensionAudioFilterD1Ev, symObjAddr: 0x98, symBinAddr: 0x4560, symSize: 0x4 }
  - { offsetInCU: 0x63B1, offset: 0x194D1, size: 0x8, addend: 0x0, symName: __ZN5agora3rtc9extension20ExtensionAudioFilterD0Ev, symObjAddr: 0x9C, symBinAddr: 0x4564, symSize: 0x4 }
  - { offsetInCU: 0x63EC, offset: 0x1950C, size: 0x8, addend: 0x0, symName: __ZThn48_N5agora3rtc9extension20ExtensionAudioFilterD0Ev, symObjAddr: 0xA0, symBinAddr: 0x4568, symSize: 0x4 }
  - { offsetInCU: 0x6406, offset: 0x19526, size: 0x8, addend: 0x0, symName: __ZThn48_N5agora3rtc9extension20ExtensionAudioFilterD0Ev, symObjAddr: 0xA0, symBinAddr: 0x4568, symSize: 0x4 }
  - { offsetInCU: 0x6417, offset: 0x19537, size: 0x8, addend: 0x0, symName: __ZN5agora3rtc9extension20ExtensionAudioFilter15adaptAudioFrameERKNS_5media4base13AudioPcmFrameERS5_, symObjAddr: 0xA4, symBinAddr: 0x456C, symSize: 0x44 }
  - { offsetInCU: 0x648C, offset: 0x195AC, size: 0x8, addend: 0x0, symName: __ZN5agora5media4base13AudioPcmFrameaSERKS2_, symObjAddr: 0xE8, symBinAddr: 0x45B0, symSize: 0x70 }
  - { offsetInCU: 0x6503, offset: 0x19623, size: 0x8, addend: 0x0, symName: __ZThn48_N5agora3rtc9extension20ExtensionAudioFilter15adaptAudioFrameERKNS_5media4base13AudioPcmFrameERS5_, symObjAddr: 0x158, symBinAddr: 0x4620, symSize: 0x44 }
  - { offsetInCU: 0x658B, offset: 0x196AB, size: 0x8, addend: 0x0, symName: __ZN5agora3rtc9extension20ExtensionAudioFilter10setEnabledEb, symObjAddr: 0x19C, symBinAddr: 0x4664, symSize: 0x34 }
  - { offsetInCU: 0x65FF, offset: 0x1971F, size: 0x8, addend: 0x0, symName: __ZThn48_N5agora3rtc9extension20ExtensionAudioFilter10setEnabledEb, symObjAddr: 0x1D0, symBinAddr: 0x4698, symSize: 0x34 }
  - { offsetInCU: 0x6652, offset: 0x19772, size: 0x8, addend: 0x0, symName: __ZNK5agora3rtc9extension20ExtensionAudioFilter9isEnabledEv, symObjAddr: 0x204, symBinAddr: 0x46CC, symSize: 0x24 }
  - { offsetInCU: 0x66B0, offset: 0x197D0, size: 0x8, addend: 0x0, symName: __ZThn48_NK5agora3rtc9extension20ExtensionAudioFilter9isEnabledEv, symObjAddr: 0x228, symBinAddr: 0x46F0, symSize: 0x24 }
  - { offsetInCU: 0x66FC, offset: 0x1981C, size: 0x8, addend: 0x0, symName: __ZN5agora3rtc9extension20ExtensionAudioFilter11setPropertyEPKcPKvi, symObjAddr: 0x24C, symBinAddr: 0x4714, symSize: 0x4C }
  - { offsetInCU: 0x679E, offset: 0x198BE, size: 0x8, addend: 0x0, symName: __ZThn48_N5agora3rtc9extension20ExtensionAudioFilter11setPropertyEPKcPKvi, symObjAddr: 0x298, symBinAddr: 0x4760, symSize: 0x4C }
  - { offsetInCU: 0x6812, offset: 0x19932, size: 0x8, addend: 0x0, symName: __ZNK5agora3rtc9extension20ExtensionAudioFilter11getPropertyEPKcPvi, symObjAddr: 0x2E4, symBinAddr: 0x47AC, symSize: 0x4C }
  - { offsetInCU: 0x68B4, offset: 0x199D4, size: 0x8, addend: 0x0, symName: __ZThn48_NK5agora3rtc9extension20ExtensionAudioFilter11getPropertyEPKcPvi, symObjAddr: 0x330, symBinAddr: 0x47F8, symSize: 0x4C }
  - { offsetInCU: 0x699B, offset: 0x19ABB, size: 0x8, addend: 0x0, symName: __ZNK5agora3rtc9extension20ExtensionAudioFilter7getNameEv, symObjAddr: 0x37C, symBinAddr: 0x4844, symSize: 0x1C }
  - { offsetInCU: 0x6A55, offset: 0x19B75, size: 0x8, addend: 0x0, symName: __ZNK5agora3rtc9extension10IExtensionINS_5media4base13AudioPcmFrameEE7getNameEv, symObjAddr: 0x398, symBinAddr: 0x4860, symSize: 0x1C }
  - { offsetInCU: 0x6B11, offset: 0x19C31, size: 0x8, addend: 0x0, symName: __ZThn48_NK5agora3rtc9extension20ExtensionAudioFilter7getNameEv, symObjAddr: 0x3B4, symBinAddr: 0x487C, symSize: 0x1C }
  - { offsetInCU: 0x6BD6, offset: 0x19CF6, size: 0x8, addend: 0x0, symName: __ZN5agora3rtc9extension20ExtensionAudioFilter22getPreferredSampleRateEv, symObjAddr: 0x3D0, symBinAddr: 0x4898, symSize: 0x48 }
  - { offsetInCU: 0x6C49, offset: 0x19D69, size: 0x8, addend: 0x0, symName: __ZThn48_N5agora3rtc9extension20ExtensionAudioFilter22getPreferredSampleRateEv, symObjAddr: 0x418, symBinAddr: 0x48E0, symSize: 0x48 }
  - { offsetInCU: 0x6CA4, offset: 0x19DC4, size: 0x8, addend: 0x0, symName: __ZN5agora3rtc9extension10IExtensionINS_5media4base13AudioPcmFrameEE11SetDelegateEPNS1_17ExtensionDelegateIS5_EE, symObjAddr: 0x460, symBinAddr: 0x4928, symSize: 0x8 }
  - { offsetInCU: 0x6CEF, offset: 0x19E0F, size: 0x8, addend: 0x0, symName: __ZNSt3__110shared_ptrIN5agora3rtc9extension17ExtensionDelegateINS1_5media4base13AudioPcmFrameEEEE5resetB7v160006IS8_vEEvPT_, symObjAddr: 0x60C, symBinAddr: 0x49B0, symSize: 0x70 }
  - { offsetInCU: 0x6E84, offset: 0x19FA4, size: 0x8, addend: 0x0, symName: __ZNK5agora3rtc9extension10IExtensionINS_5media4base13AudioPcmFrameEE11GetDelegateEv, symObjAddr: 0x468, symBinAddr: 0x4930, symSize: 0x8 }
  - { offsetInCU: 0x6EAE, offset: 0x19FCE, size: 0x8, addend: 0x0, symName: __ZNK5agora3rtc9extension10IExtensionINS_5media4base13AudioPcmFrameEE11GetDelegateEv, symObjAddr: 0x468, symBinAddr: 0x4930, symSize: 0x8 }
  - { offsetInCU: 0x6EC9, offset: 0x19FE9, size: 0x8, addend: 0x0, symName: __ZN5agora3rtc12IAudioFilter26getPreferredChannelNumbersEv, symObjAddr: 0x470, symBinAddr: 0x4938, symSize: 0x8 }
  - { offsetInCU: 0x6EF0, offset: 0x1A010, size: 0x8, addend: 0x0, symName: __ZN5agora3rtc9extension10IExtensionINS_5media4base13AudioPcmFrameEED1Ev, symObjAddr: 0x478, symBinAddr: 0x4940, symSize: 0x4 }
  - { offsetInCU: 0x6F13, offset: 0x1A033, size: 0x8, addend: 0x0, symName: __ZN5agora3rtc9extension10IExtensionINS_5media4base13AudioPcmFrameEED1Ev, symObjAddr: 0x478, symBinAddr: 0x4940, symSize: 0x4 }
  - { offsetInCU: 0x6F40, offset: 0x1A060, size: 0x8, addend: 0x0, symName: __ZN5agora3rtc9extension10IExtensionINS_5media4base13AudioPcmFrameEED0Ev, symObjAddr: 0x47C, symBinAddr: 0x4944, symSize: 0x14 }
  - { offsetInCU: 0x7274, offset: 0x1A394, size: 0x8, addend: 0x0, symName: __ZNSt3__110shared_ptrIN5agora3rtc9extension17ExtensionDelegateINS1_5media4base13AudioPcmFrameEEEEC2IS8_vEEPT_, symObjAddr: 0x67C, symBinAddr: 0x4A20, symSize: 0x68 }
  - { offsetInCU: 0x7648, offset: 0x1A768, size: 0x8, addend: 0x0, symName: __ZNSt3__120__shared_ptr_pointerIPN5agora3rtc9extension17ExtensionDelegateINS1_5media4base13AudioPcmFrameEEENS_10shared_ptrIS8_E27__shared_ptr_default_deleteIS8_S8_EENS_9allocatorIS8_EEED1Ev, symObjAddr: 0x6E4, symBinAddr: 0x4A88, symSize: 0x4 }
  - { offsetInCU: 0x766B, offset: 0x1A78B, size: 0x8, addend: 0x0, symName: __ZNSt3__120__shared_ptr_pointerIPN5agora3rtc9extension17ExtensionDelegateINS1_5media4base13AudioPcmFrameEEENS_10shared_ptrIS8_E27__shared_ptr_default_deleteIS8_S8_EENS_9allocatorIS8_EEED1Ev, symObjAddr: 0x6E4, symBinAddr: 0x4A88, symSize: 0x4 }
  - { offsetInCU: 0x76A0, offset: 0x1A7C0, size: 0x8, addend: 0x0, symName: __ZNSt3__120__shared_ptr_pointerIPN5agora3rtc9extension17ExtensionDelegateINS1_5media4base13AudioPcmFrameEEENS_10shared_ptrIS8_E27__shared_ptr_default_deleteIS8_S8_EENS_9allocatorIS8_EEED0Ev, symObjAddr: 0x6E8, symBinAddr: 0x4A8C, symSize: 0x14 }
  - { offsetInCU: 0x7703, offset: 0x1A823, size: 0x8, addend: 0x0, symName: __ZNSt3__120__shared_ptr_pointerIPN5agora3rtc9extension17ExtensionDelegateINS1_5media4base13AudioPcmFrameEEENS_10shared_ptrIS8_E27__shared_ptr_default_deleteIS8_S8_EENS_9allocatorIS8_EEE16__on_zero_sharedEv, symObjAddr: 0x6FC, symBinAddr: 0x4AA0, symSize: 0x18 }
  - { offsetInCU: 0x7753, offset: 0x1A873, size: 0x8, addend: 0x0, symName: __ZNKSt3__120__shared_ptr_pointerIPN5agora3rtc9extension17ExtensionDelegateINS1_5media4base13AudioPcmFrameEEENS_10shared_ptrIS8_E27__shared_ptr_default_deleteIS8_S8_EENS_9allocatorIS8_EEE13__get_deleterERKSt9type_info, symObjAddr: 0x714, symBinAddr: 0x4AB8, symSize: 0x3C }
  - { offsetInCU: 0x77A0, offset: 0x1A8C0, size: 0x8, addend: 0x0, symName: __ZNKSt9type_infoeqB7v160006ERKS_, symObjAddr: 0x754, symBinAddr: 0x4AF8, symSize: 0x48 }
  - { offsetInCU: 0x7868, offset: 0x1A988, size: 0x8, addend: 0x0, symName: __ZNSt3__120__shared_ptr_pointerIPN5agora3rtc9extension17ExtensionDelegateINS1_5media4base13AudioPcmFrameEEENS_10shared_ptrIS8_E27__shared_ptr_default_deleteIS8_S8_EENS_9allocatorIS8_EEE21__on_zero_shared_weakEv, symObjAddr: 0x750, symBinAddr: 0x4AF4, symSize: 0x4 }
  - { offsetInCU: 0x789E, offset: 0x1A9BE, size: 0x8, addend: 0x0, symName: __ZNSt3__120__shared_ptr_pointerIPN5agora3rtc9extension17ExtensionDelegateINS1_5media4base13AudioPcmFrameEEENS_10shared_ptrIS8_E27__shared_ptr_default_deleteIS8_S8_EENS_9allocatorIS8_EEE21__on_zero_shared_weakEv, symObjAddr: 0x750, symBinAddr: 0x4AF4, symSize: 0x4 }
  - { offsetInCU: 0x78C2, offset: 0x1A9E2, size: 0x8, addend: 0x0, symName: __ZNSt3__120__shared_ptr_pointerIPN5agora3rtc9extension17ExtensionDelegateINS1_5media4base13AudioPcmFrameEEENS_10shared_ptrIS8_E27__shared_ptr_default_deleteIS8_S8_EENS_9allocatorIS8_EEE21__on_zero_shared_weakEv, symObjAddr: 0x750, symBinAddr: 0x4AF4, symSize: 0x4 }
  - { offsetInCU: 0x78EE, offset: 0x1AA0E, size: 0x8, addend: 0x0, symName: __ZNSt3__120__shared_ptr_pointerIPN5agora3rtc9extension17ExtensionDelegateINS1_5media4base13AudioPcmFrameEEENS_10shared_ptrIS8_E27__shared_ptr_default_deleteIS8_S8_EENS_9allocatorIS8_EEE21__on_zero_shared_weakEv, symObjAddr: 0x750, symBinAddr: 0x4AF4, symSize: 0x4 }
  - { offsetInCU: 0x7915, offset: 0x1AA35, size: 0x8, addend: 0x0, symName: __ZNSt3__120__shared_ptr_pointerIPN5agora3rtc9extension17ExtensionDelegateINS1_5media4base13AudioPcmFrameEEENS_10shared_ptrIS8_E27__shared_ptr_default_deleteIS8_S8_EENS_9allocatorIS8_EEE21__on_zero_shared_weakEv, symObjAddr: 0x750, symBinAddr: 0x4AF4, symSize: 0x4 }
  - { offsetInCU: 0x55, offset: 0x1AAF4, size: 0x8, addend: 0x0, symName: __ZN3fmt3v106detail17format_error_codeERNS1_6bufferIcEEiNS0_17basic_string_viewIcEE, symObjAddr: 0xAC, symBinAddr: 0x4BEC, symSize: 0x108 }
  - { offsetInCU: 0x7B, offset: 0x1AB1A, size: 0x8, addend: 0x0, symName: __ZZN3fmt3v106detail17format_error_codeERNS1_6bufferIcEEiNS0_17basic_string_viewIcEEE3SEP, symObjAddr: 0x10E78, symBinAddr: 0x92E958, symSize: 0x0 }
  - { offsetInCU: 0x91, offset: 0x1AB30, size: 0x8, addend: 0x0, symName: __ZZN3fmt3v106detail17format_error_codeERNS1_6bufferIcEEiNS0_17basic_string_viewIcEEE9ERROR_STR, symObjAddr: 0x10E7B, symBinAddr: 0x92E95B, symSize: 0x0 }
  - { offsetInCU: 0x3D5, offset: 0x1AE74, size: 0x8, addend: 0x0, symName: __ZN3fmt3v106detail12is_printableEj, symObjAddr: 0x107C, symBinAddr: 0x5BB0, symSize: 0x218 }
  - { offsetInCU: 0x401, offset: 0x1AEA0, size: 0x8, addend: 0x0, symName: __ZZN3fmt3v106detail12is_printableEjE11singletons0, symObjAddr: 0x10E82, symBinAddr: 0x92E962, symSize: 0x0 }
  - { offsetInCU: 0x418, offset: 0x1AEB7, size: 0x8, addend: 0x0, symName: __ZZN3fmt3v106detail12is_printableEjE17singletons0_lower, symObjAddr: 0x10ED4, symBinAddr: 0x92E9B4, symSize: 0x0 }
  - { offsetInCU: 0x42F, offset: 0x1AECE, size: 0x8, addend: 0x0, symName: __ZZN3fmt3v106detail12is_printableEjE11singletons1, symObjAddr: 0x10FF6, symBinAddr: 0x92EAD6, symSize: 0x0 }
  - { offsetInCU: 0x446, offset: 0x1AEE5, size: 0x8, addend: 0x0, symName: __ZZN3fmt3v106detail12is_printableEjE17singletons1_lower, symObjAddr: 0x11042, symBinAddr: 0x92EB22, symSize: 0x0 }
  - { offsetInCU: 0x45D, offset: 0x1AEFC, size: 0x8, addend: 0x0, symName: __ZZN3fmt3v106detail12is_printableEjE7normal0, symObjAddr: 0x110F1, symBinAddr: 0x92EBD1, symSize: 0x0 }
  - { offsetInCU: 0x474, offset: 0x1AF13, size: 0x8, addend: 0x0, symName: __ZZN3fmt3v106detail12is_printableEjE7normal1, symObjAddr: 0x11226, symBinAddr: 0x92ED06, symSize: 0x0 }
  - { offsetInCU: 0x9D0, offset: 0x1B46F, size: 0x8, addend: 0x0, symName: __ZN3fmt3v106detail9dragonbox10to_decimalIfEENS2_10decimal_fpIT_EES5_, symObjAddr: 0x1294, symBinAddr: 0x5DC8, symSize: 0x334 }
  - { offsetInCU: 0xF3E, offset: 0x1B9DD, size: 0x8, addend: 0x0, symName: __ZN3fmt3v106detail9dragonbox14cache_accessorIfE18compute_mul_parityEjRKyi, symObjAddr: 0x15C8, symBinAddr: 0x60FC, symSize: 0x80 }
  - { offsetInCU: 0xF65, offset: 0x1BA04, size: 0x8, addend: 0x0, symName: __ZN3fmt3v106detail9dragonbox10to_decimalIdEENS2_10decimal_fpIT_EES5_, symObjAddr: 0x1648, symBinAddr: 0x617C, symSize: 0x45C }
  - { offsetInCU: 0x16E2, offset: 0x1C181, size: 0x8, addend: 0x0, symName: __ZN3fmt3v106detail9dragonbox14cache_accessorIdE18compute_mul_parityEyRKNS1_16uint128_fallbackEi, symObjAddr: 0x1AA4, symBinAddr: 0x65D8, symSize: 0x84 }
  - { offsetInCU: 0x1709, offset: 0x1C1A8, size: 0x8, addend: 0x0, symName: __ZN3fmt3v106detail9dragonbox16get_cached_powerEi, symObjAddr: 0x818, symBinAddr: 0x534C, symSize: 0x4 }
  - { offsetInCU: 0x1728, offset: 0x1C1C7, size: 0x8, addend: 0x0, symName: __ZN3fmt3v106detail9dragonbox16get_cached_powerEi, symObjAddr: 0x818, symBinAddr: 0x534C, symSize: 0x4 }
  - { offsetInCU: 0x279E, offset: 0x1D23D, size: 0x8, addend: 0x0, symName: __ZN3fmt3v106detail9write_locENS0_8appenderENS0_9loc_valueERKNS0_12format_specsIcEENS1_10locale_refE, symObjAddr: 0x280, symBinAddr: 0x4DB4, symSize: 0x178 }
  - { offsetInCU: 0x2D69, offset: 0x1D808, size: 0x8, addend: 0x0, symName: __ZN3fmt3v106detail5writeIcNS0_8appenderEfLi0EEET0_S4_T1_, symObjAddr: 0x4AC8, symBinAddr: 0x954C, symSize: 0xA0 }
  - { offsetInCU: 0x2F19, offset: 0x1D9B8, size: 0x8, addend: 0x0, symName: __ZN3fmt3v106detail5writeIcNS0_8appenderEdLi0EEET0_S4_T1_, symObjAddr: 0x63F0, symBinAddr: 0xAE74, symSize: 0xA0 }
  - { offsetInCU: 0x30D0, offset: 0x1DB6F, size: 0x8, addend: 0x0, symName: __ZN3fmt3v106detail5writeIcNS0_8appenderEeLi0EEET0_S4_T1_, symObjAddr: 0x7488, symBinAddr: 0xBF0C, symSize: 0xA0 }
  - { offsetInCU: 0x3287, offset: 0x1DD26, size: 0x8, addend: 0x0, symName: __ZN3fmt3v106detail23parse_replacement_fieldIcRZNS1_10vformat_toIcEEvRNS1_6bufferIT_EENS0_17basic_string_viewIS5_EENS1_12vformat_argsIS5_E4typeENS1_10locale_refEE14format_handlerEEPKS5_SH_SH_OT0_, symObjAddr: 0x7894, symBinAddr: 0xC318, symSize: 0x3DC }
  - { offsetInCU: 0x3BBB, offset: 0x1E65A, size: 0x8, addend: 0x0, symName: __ZZN3fmt3v106detail19parse_format_stringILb0EcZNS1_10vformat_toIcEEvRNS1_6bufferIT_EENS0_17basic_string_viewIS5_EENS1_12vformat_argsIS5_E4typeENS1_10locale_refEE14format_handlerEEvNS8_IT0_EEOT1_EN6writerclEPKcSL_, symObjAddr: 0x7C70, symBinAddr: 0xC6F4, symSize: 0xC0 }
  - { offsetInCU: 0x3BDF, offset: 0x1E67E, size: 0x8, addend: 0x0, symName: __ZN3fmt3v106detail10vformat_toIcEEvRNS1_6bufferIT_EENS0_17basic_string_viewIS4_EENS1_12vformat_argsIS4_E4typeENS1_10locale_refE, symObjAddr: 0xBA0, symBinAddr: 0x56D4, symSize: 0x36C }
  - { offsetInCU: 0x4618, offset: 0x1F0B7, size: 0x8, addend: 0x0, symName: __ZN3fmt3v106detail13write_consoleEP7__sFILENS0_17basic_string_viewIcEE, symObjAddr: 0xF0C, symBinAddr: 0x5A40, symSize: 0x8 }
  - { offsetInCU: 0x4B54, offset: 0x1F5F3, size: 0x8, addend: 0x0, symName: __ZN3fmt3v106detail5writeIcNS0_8appenderEEET0_S4_T_RKNS0_12format_specsIS5_EENS1_10locale_refE, symObjAddr: 0xAEA4, symBinAddr: 0xF928, symSize: 0x104 }
  - { offsetInCU: 0x4DF7, offset: 0x1F896, size: 0x8, addend: 0x0, symName: __ZN3fmt3v106detail15format_hexfloatIdLi0EEEvT_iNS1_11float_specsERNS1_6bufferIcEE, symObjAddr: 0xB450, symBinAddr: 0xFED4, symSize: 0x3B8 }
  - { offsetInCU: 0x5A86, offset: 0x20525, size: 0x8, addend: 0x0, symName: __ZN3fmt3v106detail18throw_format_errorEPKc, symObjAddr: 0x34, symBinAddr: 0x4B74, symSize: 0x50 }
  - { offsetInCU: 0x5AC5, offset: 0x20564, size: 0x8, addend: 0x0, symName: __ZN3fmt3v106detail11assert_failEPKciS3_, symObjAddr: 0x0, symBinAddr: 0x4B40, symSize: 0x34 }
  - { offsetInCU: 0x5B13, offset: 0x205B2, size: 0x8, addend: 0x0, symName: __ZN3fmt3v106detail18throw_format_errorEPKc, symObjAddr: 0x34, symBinAddr: 0x4B74, symSize: 0x50 }
  - { offsetInCU: 0x5BF4, offset: 0x20693, size: 0x8, addend: 0x0, symName: __ZN3fmt3v106detail12report_errorEPFvRNS1_6bufferIcEEiPKcEiS6_, symObjAddr: 0x1C0, symBinAddr: 0x4CF4, symSize: 0xC0 }
  - { offsetInCU: 0x63CF, offset: 0x20E6E, size: 0x8, addend: 0x0, symName: __ZN3fmt3v106detail5writeIcNSt3__120back_insert_iteratorINS1_6bufferIcEEEEEET0_S8_PKT_, symObjAddr: 0xB48, symBinAddr: 0x567C, symSize: 0x44 }
  - { offsetInCU: 0x64B4, offset: 0x20F53, size: 0x8, addend: 0x0, symName: __ZN3fmt3v1019report_system_errorEiPKc, symObjAddr: 0xB8C, symBinAddr: 0x56C0, symSize: 0x14 }
  - { offsetInCU: 0x6519, offset: 0x20FB8, size: 0x8, addend: 0x0, symName: __ZN3fmt3v106detail17copy_str_noinlineIcPKcNSt3__120back_insert_iteratorINS1_6bufferIcEEEEEET1_T0_SB_SA_, symObjAddr: 0x24E8, symBinAddr: 0x6F6C, symSize: 0x4 }
  - { offsetInCU: 0x6569, offset: 0x21008, size: 0x8, addend: 0x0, symName: __ZN3fmt3v106detail17copy_str_noinlineIcPKcNSt3__120back_insert_iteratorINS1_6bufferIcEEEEEET1_T0_SB_SA_, symObjAddr: 0x24E8, symBinAddr: 0x6F6C, symSize: 0x4 }
  - { offsetInCU: 0x6A5D, offset: 0x214FC, size: 0x8, addend: 0x0, symName: __ZN3fmt3v106detail5writeIcNS0_8appenderEiLi0EEET0_S4_T1_, symObjAddr: 0x2614, symBinAddr: 0x7098, symSize: 0x130 }
  - { offsetInCU: 0x6CE8, offset: 0x21787, size: 0x8, addend: 0x0, symName: __ZN3fmt3v106detail5writeIcNS0_8appenderEjLi0EEET0_S4_T1_, symObjAddr: 0x2840, symBinAddr: 0x72C4, symSize: 0xBC }
  - { offsetInCU: 0x6EE9, offset: 0x21988, size: 0x8, addend: 0x0, symName: __ZN3fmt3v106detail5writeIcNS0_8appenderExLi0EEET0_S4_T1_, symObjAddr: 0x28FC, symBinAddr: 0x7380, symSize: 0x13C }
  - { offsetInCU: 0x716A, offset: 0x21C09, size: 0x8, addend: 0x0, symName: __ZN3fmt3v106detail5writeIcNS0_8appenderEyLi0EEET0_S4_T1_, symObjAddr: 0x2B20, symBinAddr: 0x75A4, symSize: 0xCC }
  - { offsetInCU: 0x736C, offset: 0x21E0B, size: 0x8, addend: 0x0, symName: __ZN3fmt3v106detail5writeIcNS0_8appenderEnLi0EEET0_S4_T1_, symObjAddr: 0x2BEC, symBinAddr: 0x7670, symSize: 0x204 }
  - { offsetInCU: 0x7618, offset: 0x220B7, size: 0x8, addend: 0x0, symName: __ZN3fmt3v106detail5writeIcNS0_8appenderEoLi0EEET0_S4_T1_, symObjAddr: 0x2FD4, symBinAddr: 0x7A58, symSize: 0x198 }
  - { offsetInCU: 0x7838, offset: 0x222D7, size: 0x8, addend: 0x0, symName: __ZN3fmt3v106detail5writeIcNS0_8appenderEEET0_S4_PKT_, symObjAddr: 0x7528, symBinAddr: 0xBFAC, symSize: 0x44 }
  - { offsetInCU: 0x791D, offset: 0x223BC, size: 0x8, addend: 0x0, symName: __ZN3fmt3v106detail17copy_str_noinlineIcPKcNS0_8appenderEEET1_T0_S7_S6_, symObjAddr: 0x756C, symBinAddr: 0xBFF0, symSize: 0x30 }
  - { offsetInCU: 0x7939, offset: 0x223D8, size: 0x8, addend: 0x0, symName: __ZN3fmt3v106detail17copy_str_noinlineIcPKcNS0_8appenderEEET1_T0_S7_S6_, symObjAddr: 0x756C, symBinAddr: 0xBFF0, symSize: 0x30 }
  - { offsetInCU: 0x79F5, offset: 0x22494, size: 0x8, addend: 0x0, symName: __ZN3fmt3v106detail13write_consoleEP7__sFILENS0_17basic_string_viewIcEE, symObjAddr: 0xF0C, symBinAddr: 0x5A40, symSize: 0x8 }
  - { offsetInCU: 0x7A6F, offset: 0x2250E, size: 0x8, addend: 0x0, symName: __ZN3fmt3v106detail5printEP7__sFILENS0_17basic_string_viewIcEE, symObjAddr: 0xF14, symBinAddr: 0x5A48, symSize: 0x88 }
  - { offsetInCU: 0x7CCF, offset: 0x2276E, size: 0x8, addend: 0x0, symName: __ZN3fmt3v106detail18thousands_sep_implIcEENS1_20thousands_sep_resultIT_EENS1_10locale_refE, symObjAddr: 0x1B38, symBinAddr: 0x666C, symSize: 0xE0 }
  - { offsetInCU: 0x7FA7, offset: 0x22A46, size: 0x8, addend: 0x0, symName: __ZN3fmt3v106detail18decimal_point_implIcEET_NS1_10locale_refE, symObjAddr: 0x1C18, symBinAddr: 0x674C, symSize: 0x7C }
  - { offsetInCU: 0x8039, offset: 0x22AD8, size: 0x8, addend: 0x0, symName: __ZN3fmt3v106detail18thousands_sep_implIwEENS1_20thousands_sep_resultIT_EENS1_10locale_refE, symObjAddr: 0x1DB4, symBinAddr: 0x68E8, symSize: 0xE0 }
  - { offsetInCU: 0x8311, offset: 0x22DB0, size: 0x8, addend: 0x0, symName: __ZN3fmt3v106detail18decimal_point_implIwEET_NS1_10locale_refE, symObjAddr: 0x1E94, symBinAddr: 0x69C8, symSize: 0x7C }
  - { offsetInCU: 0x8427, offset: 0x22EC6, size: 0x8, addend: 0x0, symName: __ZN3fmt3v106detail8copy_strIcPKcNSt3__120back_insert_iteratorINS1_6bufferIcEEEEEET1_T0_SB_SA_, symObjAddr: 0x24EC, symBinAddr: 0x6F70, symSize: 0x78 }
  - { offsetInCU: 0x84FF, offset: 0x22F9E, size: 0x8, addend: 0x0, symName: __ZN3fmt3v106detail5writeIcNS0_8appenderEbLi0EEET0_S4_T1_RKNS0_12format_specsIT_EENS1_10locale_refE, symObjAddr: 0x316C, symBinAddr: 0x7BF0, symSize: 0x110 }
  - { offsetInCU: 0x87D2, offset: 0x23271, size: 0x8, addend: 0x0, symName: __ZN3fmt3v106detail9write_ptrIcNS0_8appenderEmEET0_S4_T1_PKNS0_12format_specsIT_EE, symObjAddr: 0x759C, symBinAddr: 0xC020, symSize: 0x6C }
  - { offsetInCU: 0x8A2A, offset: 0x234C9, size: 0x8, addend: 0x0, symName: __ZN3fmt3v106detail14format_decimalIcjEENS1_21format_decimal_resultIPT_EES5_T0_i, symObjAddr: 0x2744, symBinAddr: 0x71C8, symSize: 0xCC }
  - { offsetInCU: 0x8B31, offset: 0x235D0, size: 0x8, addend: 0x0, symName: __ZN3fmt3v106detail17copy_str_noinlineIcPcNS0_8appenderEEET1_T0_S6_S5_, symObjAddr: 0x2810, symBinAddr: 0x7294, symSize: 0x30 }
  - { offsetInCU: 0x8B55, offset: 0x235F4, size: 0x8, addend: 0x0, symName: __ZN3fmt3v106detail17copy_str_noinlineIcPcNS0_8appenderEEET1_T0_S6_S5_, symObjAddr: 0x2810, symBinAddr: 0x7294, symSize: 0x30 }
  - { offsetInCU: 0x8D61, offset: 0x23800, size: 0x8, addend: 0x0, symName: __ZN3fmt3v106detail14format_decimalIcyEENS1_21format_decimal_resultIPT_EES5_T0_i, symObjAddr: 0x2A38, symBinAddr: 0x74BC, symSize: 0xE8 }
  - { offsetInCU: 0x8E55, offset: 0x238F4, size: 0x8, addend: 0x0, symName: __ZN3fmt3v106detail5writeIcNS0_8appenderEyLi0EEET0_S4_T1_, symObjAddr: 0x2B20, symBinAddr: 0x75A4, symSize: 0xCC }
  - { offsetInCU: 0x8F3C, offset: 0x239DB, size: 0x8, addend: 0x0, symName: __ZN3fmt3v106detail14format_decimalIcoEENS1_21format_decimal_resultIPT_EES5_T0_i, symObjAddr: 0x2DF0, symBinAddr: 0x7874, symSize: 0x1E4 }
  - { offsetInCU: 0x902E, offset: 0x23ACD, size: 0x8, addend: 0x0, symName: __ZN3fmt3v106detail5writeIcNS0_8appenderEoLi0EEET0_S4_T1_, symObjAddr: 0x2FD4, symBinAddr: 0x7A58, symSize: 0x198 }
  - { offsetInCU: 0x9266, offset: 0x23D05, size: 0x8, addend: 0x0, symName: __ZN3fmt3v106detail12write_paddedILNS0_5align4typeE1ENS0_8appenderEcRZNS1_11write_bytesILS4_1EcS5_EET1_S7_NS0_17basic_string_viewIcEERKNS0_12format_specsIT0_EEEUlS5_E_EESB_SB_RKNSA_IS7_EEmmOT2_, symObjAddr: 0x4A00, symBinAddr: 0x9484, symSize: 0xC8 }
  - { offsetInCU: 0x9416, offset: 0x23EB5, size: 0x8, addend: 0x0, symName: __ZN3fmt3v106detail5writeIcNS0_8appenderEfLi0EEET0_S4_T1_, symObjAddr: 0x4AC8, symBinAddr: 0x954C, symSize: 0xA0 }
  - { offsetInCU: 0x944D, offset: 0x23EEC, size: 0x8, addend: 0x0, symName: __ZN3fmt3v106detail18write_int_noinlineIcNS0_8appenderEjEET0_S4_NS1_13write_int_argIT1_EERKNS0_12format_specsIT_EENS1_10locale_refE, symObjAddr: 0x327C, symBinAddr: 0x7D00, symSize: 0x678 }
  - { offsetInCU: 0xA1F7, offset: 0x24C96, size: 0x8, addend: 0x0, symName: __ZN3fmt3v106detail14write_int_dataIcEC2EijRKNS0_12format_specsIcEE, symObjAddr: 0x38F4, symBinAddr: 0x8378, symSize: 0x8C }
  - { offsetInCU: 0xAE36, offset: 0x258D5, size: 0x8, addend: 0x0, symName: __ZN3fmt3v106detail12write_paddedILNS0_5align4typeE2ENS0_8appenderEcRZNS1_9write_intIS5_cZNS1_9write_intIcS5_jEET0_S8_NS1_13write_int_argIT1_EERKNS0_12format_specsIT_EENS1_10locale_refEEUlS5_E_EESD_SD_ijRKNSC_IS8_EESA_EUlS5_E_EES8_S8_RKNSC_ISA_EEmmOT2_, symObjAddr: 0x3980, symBinAddr: 0x8404, symSize: 0x160 }
  - { offsetInCU: 0xB0E3, offset: 0x25B82, size: 0x8, addend: 0x0, symName: __ZN3fmt3v106detail12write_paddedILNS0_5align4typeE2ENS0_8appenderEcRZNS1_9write_intIS5_cZNS1_9write_intIcS5_jEET0_S8_NS1_13write_int_argIT1_EERKNS0_12format_specsIT_EENS1_10locale_refEEUlS5_E0_EESD_SD_ijRKNSC_IS8_EESA_EUlS5_E_EES8_S8_RKNSC_ISA_EEmmOT2_, symObjAddr: 0x3BCC, symBinAddr: 0x8650, symSize: 0xB0 }
  - { offsetInCU: 0xB20E, offset: 0x25CAD, size: 0x8, addend: 0x0, symName: __ZZN3fmt3v106detail9write_intINS0_8appenderEcZNS1_9write_intIcS3_jEET0_S5_NS1_13write_int_argIT1_EERKNS0_12format_specsIT_EENS1_10locale_refEEUlS3_E0_EESA_SA_ijRKNS9_IS5_EES7_ENKUlS3_E_clES3_, symObjAddr: 0x3C7C, symBinAddr: 0x8700, symSize: 0x1AC }
  - { offsetInCU: 0xB245, offset: 0x25CE4, size: 0x8, addend: 0x0, symName: __ZN3fmt3v106detail12write_paddedILNS0_5align4typeE2ENS0_8appenderEcRZNS1_9write_intIS5_cZNS1_9write_intIcS5_jEET0_S8_NS1_13write_int_argIT1_EERKNS0_12format_specsIT_EENS1_10locale_refEEUlS5_E1_EESD_SD_ijRKNSC_IS8_EESA_EUlS5_E_EES8_S8_RKNSC_ISA_EEmmOT2_, symObjAddr: 0x3E28, symBinAddr: 0x88AC, symSize: 0xB0 }
  - { offsetInCU: 0xB370, offset: 0x25E0F, size: 0x8, addend: 0x0, symName: __ZZN3fmt3v106detail9write_intINS0_8appenderEcZNS1_9write_intIcS3_jEET0_S5_NS1_13write_int_argIT1_EERKNS0_12format_specsIT_EENS1_10locale_refEEUlS3_E1_EESA_SA_ijRKNS9_IS5_EES7_ENKUlS3_E_clES3_, symObjAddr: 0x3ED8, symBinAddr: 0x895C, symSize: 0x17C }
  - { offsetInCU: 0xB3A7, offset: 0x25E46, size: 0x8, addend: 0x0, symName: __ZN3fmt3v106detail12write_paddedILNS0_5align4typeE2ENS0_8appenderEcRZNS1_9write_intIS5_cZNS1_9write_intIcS5_jEET0_S8_NS1_13write_int_argIT1_EERKNS0_12format_specsIT_EENS1_10locale_refEEUlS5_E2_EESD_SD_ijRKNSC_IS8_EESA_EUlS5_E_EES8_S8_RKNSC_ISA_EEmmOT2_, symObjAddr: 0x4054, symBinAddr: 0x8AD8, symSize: 0xB0 }
  - { offsetInCU: 0xB4D2, offset: 0x25F71, size: 0x8, addend: 0x0, symName: __ZZN3fmt3v106detail9write_intINS0_8appenderEcZNS1_9write_intIcS3_jEET0_S5_NS1_13write_int_argIT1_EERKNS0_12format_specsIT_EENS1_10locale_refEEUlS3_E2_EESA_SA_ijRKNS9_IS5_EES7_ENKUlS3_E_clES3_, symObjAddr: 0x4104, symBinAddr: 0x8B88, symSize: 0x178 }
  - { offsetInCU: 0xB509, offset: 0x25FA8, size: 0x8, addend: 0x0, symName: __ZN3fmt3v106detail12write_paddedILNS0_5align4typeE1ENS0_8appenderEcRZNS1_10write_charIcS5_EET0_S7_T_RKNS0_12format_specsIS8_EEEUlS5_E_EES7_S7_RKNS9_IT1_EEmmOT2_, symObjAddr: 0x427C, symBinAddr: 0x8D00, symSize: 0x10C }
  - { offsetInCU: 0xB6E3, offset: 0x26182, size: 0x8, addend: 0x0, symName: __ZN3fmt3v106detail18write_escaped_charIcNS0_8appenderEEET0_S4_T_, symObjAddr: 0x4388, symBinAddr: 0x8E0C, symSize: 0x14C }
  - { offsetInCU: 0xB71A, offset: 0x261B9, size: 0x8, addend: 0x0, symName: __ZN3fmt3v106detail4fillINS0_8appenderEcEET_S4_mRKNS1_6fill_tIT0_EE, symObjAddr: 0x3AE0, symBinAddr: 0x8564, symSize: 0x78 }
  - { offsetInCU: 0xB848, offset: 0x262E7, size: 0x8, addend: 0x0, symName: __ZN3fmt3v106detail6fill_nINS0_8appenderEmcEET_S4_T0_RKT1_, symObjAddr: 0x3B58, symBinAddr: 0x85DC, symSize: 0x74 }
  - { offsetInCU: 0xB996, offset: 0x26435, size: 0x8, addend: 0x0, symName: __ZN3fmt3v106detail18write_escaped_charIcNS0_8appenderEEET0_S4_T_, symObjAddr: 0x4388, symBinAddr: 0x8E0C, symSize: 0x14C }
  - { offsetInCU: 0xBBA8, offset: 0x26647, size: 0x8, addend: 0x0, symName: __ZN3fmt3v106detail16write_escaped_cpINS0_8appenderEcEET_S4_RKNS1_18find_escape_resultIT0_EE, symObjAddr: 0x44D4, symBinAddr: 0x8F58, symSize: 0x23C }
  - { offsetInCU: 0xBEF6, offset: 0x26995, size: 0x8, addend: 0x0, symName: __ZN3fmt3v106detail15write_codepointILm2EcNS0_8appenderEEET1_S4_cj, symObjAddr: 0x4710, symBinAddr: 0x9194, symSize: 0xEC }
  - { offsetInCU: 0xBF1A, offset: 0x269B9, size: 0x8, addend: 0x0, symName: __ZN3fmt3v106detail15write_codepointILm2EcNS0_8appenderEEET1_S4_cj, symObjAddr: 0x4710, symBinAddr: 0x9194, symSize: 0xEC }
  - { offsetInCU: 0xC142, offset: 0x26BE1, size: 0x8, addend: 0x0, symName: __ZN3fmt3v106detail15write_codepointILm4EcNS0_8appenderEEET1_S4_cj, symObjAddr: 0x47FC, symBinAddr: 0x9280, symSize: 0xEC }
  - { offsetInCU: 0xC36A, offset: 0x26E09, size: 0x8, addend: 0x0, symName: __ZN3fmt3v106detail15write_codepointILm8EcNS0_8appenderEEET1_S4_cj, symObjAddr: 0x48E8, symBinAddr: 0x936C, symSize: 0x118 }
  - { offsetInCU: 0xC6D8, offset: 0x27177, size: 0x8, addend: 0x0, symName: __ZN3fmt3v106detail15write_nonfiniteIcNS0_8appenderEEET0_S4_bNS0_12format_specsIT_EERKNS1_11float_specsE, symObjAddr: 0x4B68, symBinAddr: 0x95EC, symSize: 0x9C }
  - { offsetInCU: 0xC828, offset: 0x272C7, size: 0x8, addend: 0x0, symName: __ZN3fmt3v106detail14do_write_floatINS0_8appenderENS1_9dragonbox10decimal_fpIfEEcNS1_14digit_groupingIcEEEET_S9_RKT0_RKNS0_12format_specsIT1_EENS1_11float_specsENS1_10locale_refE, symObjAddr: 0x4D14, symBinAddr: 0x9798, symSize: 0x404 }
  - { offsetInCU: 0xD04A, offset: 0x27AE9, size: 0x8, addend: 0x0, symName: __ZN3fmt3v106detail12write_paddedILNS0_5align4typeE1ENS0_8appenderEcRZNS1_15write_nonfiniteIcS5_EET0_S7_bNS0_12format_specsIT_EERKNS1_11float_specsEEUlS5_E_EES7_S7_RKNS8_IT1_EEmmOT2_, symObjAddr: 0x4C04, symBinAddr: 0x9688, symSize: 0x110 }
  - { offsetInCU: 0xD252, offset: 0x27CF1, size: 0x8, addend: 0x0, symName: __ZN3fmt3v106detail14do_write_floatINS0_8appenderENS1_9dragonbox10decimal_fpIfEEcNS1_14digit_groupingIcEEEET_S9_RKT0_RKNS0_12format_specsIT1_EENS1_11float_specsENS1_10locale_refE, symObjAddr: 0x4D14, symBinAddr: 0x9798, symSize: 0x404 }
  - { offsetInCU: 0xD5CC, offset: 0x2806B, size: 0x8, addend: 0x0, symName: __ZN3fmt3v106detail12write_paddedILNS0_5align4typeE2ENS0_8appenderEcRZNS1_14do_write_floatIS5_NS1_9dragonbox10decimal_fpIfEEcNS1_14digit_groupingIcEEEET_SC_RKT0_RKNS0_12format_specsIT1_EENS1_11float_specsENS1_10locale_refEEUlS5_E1_EESD_SD_SK_mmOT2_, symObjAddr: 0x5DD4, symBinAddr: 0xA858, symSize: 0x138 }
  - { offsetInCU: 0xD7B1, offset: 0x28250, size: 0x8, addend: 0x0, symName: __ZN3fmt3v106detail17write_significandINS0_8appenderEcjNS1_14digit_groupingIcEEEET_S6_T1_iiT0_RKT2_, symObjAddr: 0x5F0C, symBinAddr: 0xA990, symSize: 0x2C0 }
  - { offsetInCU: 0xD7E8, offset: 0x28287, size: 0x8, addend: 0x0, symName: __ZN3fmt3v106detail12write_paddedILNS0_5align4typeE2ENS0_8appenderEcRZNS1_14do_write_floatIS5_NS1_9dragonbox10decimal_fpIfEEcNS1_14digit_groupingIcEEEET_SC_RKT0_RKNS0_12format_specsIT1_EENS1_11float_specsENS1_10locale_refEEUlS5_E_EESD_SD_SK_mmOT2_, symObjAddr: 0x539C, symBinAddr: 0x9E20, symSize: 0xB0 }
  - { offsetInCU: 0xD913, offset: 0x283B2, size: 0x8, addend: 0x0, symName: __ZN3fmt3v106detail6fill_nINS0_8appenderEicEET_S4_T0_RKT1_, symObjAddr: 0x544C, symBinAddr: 0x9ED0, symSize: 0x78 }
  - { offsetInCU: 0xD94A, offset: 0x283E9, size: 0x8, addend: 0x0, symName: __ZN3fmt3v106detail12write_paddedILNS0_5align4typeE2ENS0_8appenderEcRZNS1_14do_write_floatIS5_NS1_9dragonbox10decimal_fpIfEEcNS1_14digit_groupingIcEEEET_SC_RKT0_RKNS0_12format_specsIT1_EENS1_11float_specsENS1_10locale_refEEUlS5_E0_EESD_SD_SK_mmOT2_, symObjAddr: 0x586C, symBinAddr: 0xA2F0, symSize: 0xB0 }
  - { offsetInCU: 0xDA75, offset: 0x28514, size: 0x8, addend: 0x0, symName: __ZZN3fmt3v106detail14do_write_floatINS0_8appenderENS1_9dragonbox10decimal_fpIfEEcNS1_14digit_groupingIcEEEET_S9_RKT0_RKNS0_12format_specsIT1_EENS1_11float_specsENS1_10locale_refEENKUlS3_E0_clES3_, symObjAddr: 0x591C, symBinAddr: 0xA3A0, symSize: 0x108 }
  - { offsetInCU: 0xDAAC, offset: 0x2854B, size: 0x8, addend: 0x0, symName: __ZN3fmt3v106detail12write_paddedILNS0_5align4typeE2ENS0_8appenderEcRZNS1_14do_write_floatIS5_NS1_9dragonbox10decimal_fpIfEEcNS1_14digit_groupingIcEEEET_SC_RKT0_RKNS0_12format_specsIT1_EENS1_11float_specsENS1_10locale_refEEUlS5_E2_EESD_SD_SK_mmOT2_, symObjAddr: 0x61CC, symBinAddr: 0xAC50, symSize: 0xB0 }
  - { offsetInCU: 0xDBD7, offset: 0x28676, size: 0x8, addend: 0x0, symName: __ZZN3fmt3v106detail14do_write_floatINS0_8appenderENS1_9dragonbox10decimal_fpIfEEcNS1_14digit_groupingIcEEEET_S9_RKT0_RKNS0_12format_specsIT1_EENS1_11float_specsENS1_10locale_refEENKUlS3_E2_clES3_, symObjAddr: 0x627C, symBinAddr: 0xAD00, symSize: 0x174 }
  - { offsetInCU: 0xDD27, offset: 0x287C6, size: 0x8, addend: 0x0, symName: __ZN3fmt3v106detail6fill_nINS0_8appenderEicEET_S4_T0_RKT1_, symObjAddr: 0x544C, symBinAddr: 0x9ED0, symSize: 0x78 }
  - { offsetInCU: 0xDE2D, offset: 0x288CC, size: 0x8, addend: 0x0, symName: __ZN3fmt3v106detail14write_exponentIcNS0_8appenderEEET0_iS4_, symObjAddr: 0x54C4, symBinAddr: 0x9F48, symSize: 0x1F0 }
  - { offsetInCU: 0xE153, offset: 0x28BF2, size: 0x8, addend: 0x0, symName: __ZN3fmt3v106detail14digit_groupingIcEC2ENS1_10locale_refEb, symObjAddr: 0x56B4, symBinAddr: 0xA138, symSize: 0x124 }
  - { offsetInCU: 0xE1E5, offset: 0x28C84, size: 0x8, addend: 0x0, symName: __ZN3fmt3v106detail17write_significandIcNS0_8appenderEjNS1_14digit_groupingIcEEEET0_S6_T1_iiRKT2_, symObjAddr: 0x5A24, symBinAddr: 0xA4A8, symSize: 0x158 }
  - { offsetInCU: 0xE9D7, offset: 0x29476, size: 0x8, addend: 0x0, symName: __ZN3fmt3v106detail17write_significandINS0_8appenderEcjNS1_14digit_groupingIcEEEET_S6_T1_iiT0_RKT2_, symObjAddr: 0x5F0C, symBinAddr: 0xA990, symSize: 0x2C0 }
  - { offsetInCU: 0xF112, offset: 0x29BB1, size: 0x8, addend: 0x0, symName: __ZN3fmt3v106detail14do_write_floatINS0_8appenderENS1_9dragonbox10decimal_fpIdEEcNS1_14digit_groupingIcEEEET_S9_RKT0_RKNS0_12format_specsIT1_EENS1_11float_specsENS1_10locale_refE, symObjAddr: 0x6490, symBinAddr: 0xAF14, symSize: 0x418 }
  - { offsetInCU: 0xFA86, offset: 0x2A525, size: 0x8, addend: 0x0, symName: __ZN3fmt3v106detail12write_paddedILNS0_5align4typeE2ENS0_8appenderEcRZNS1_14do_write_floatIS5_NS1_9dragonbox10decimal_fpIdEEcNS1_14digit_groupingIcEEEET_SC_RKT0_RKNS0_12format_specsIT1_EENS1_11float_specsENS1_10locale_refEEUlS5_E1_EESD_SD_SK_mmOT2_, symObjAddr: 0x6E54, symBinAddr: 0xB8D8, symSize: 0x138 }
  - { offsetInCU: 0xFC6B, offset: 0x2A70A, size: 0x8, addend: 0x0, symName: __ZN3fmt3v106detail17write_significandINS0_8appenderEcyNS1_14digit_groupingIcEEEET_S6_T1_iiT0_RKT2_, symObjAddr: 0x6F8C, symBinAddr: 0xBA10, symSize: 0x2D8 }
  - { offsetInCU: 0xFCA2, offset: 0x2A741, size: 0x8, addend: 0x0, symName: __ZN3fmt3v106detail12write_paddedILNS0_5align4typeE2ENS0_8appenderEcRZNS1_14do_write_floatIS5_NS1_9dragonbox10decimal_fpIdEEcNS1_14digit_groupingIcEEEET_SC_RKT0_RKNS0_12format_specsIT1_EENS1_11float_specsENS1_10locale_refEEUlS5_E_EESD_SD_SK_mmOT2_, symObjAddr: 0x6A94, symBinAddr: 0xB518, symSize: 0xB0 }
  - { offsetInCU: 0xFDCD, offset: 0x2A86C, size: 0x8, addend: 0x0, symName: __ZN3fmt3v106detail12write_paddedILNS0_5align4typeE2ENS0_8appenderEcRZNS1_14do_write_floatIS5_NS1_9dragonbox10decimal_fpIdEEcNS1_14digit_groupingIcEEEET_SC_RKT0_RKNS0_12format_specsIT1_EENS1_11float_specsENS1_10locale_refEEUlS5_E0_EESD_SD_SK_mmOT2_, symObjAddr: 0x6B44, symBinAddr: 0xB5C8, symSize: 0xB0 }
  - { offsetInCU: 0xFE04, offset: 0x2A8A3, size: 0x8, addend: 0x0, symName: __ZN3fmt3v106detail12write_paddedILNS0_5align4typeE2ENS0_8appenderEcRZNS1_14do_write_floatIS5_NS1_9dragonbox10decimal_fpIdEEcNS1_14digit_groupingIcEEEET_SC_RKT0_RKNS0_12format_specsIT1_EENS1_11float_specsENS1_10locale_refEEUlS5_E0_EESD_SD_SK_mmOT2_, symObjAddr: 0x6B44, symBinAddr: 0xB5C8, symSize: 0xB0 }
  - { offsetInCU: 0xFF2F, offset: 0x2A9CE, size: 0x8, addend: 0x0, symName: __ZZN3fmt3v106detail14do_write_floatINS0_8appenderENS1_9dragonbox10decimal_fpIdEEcNS1_14digit_groupingIcEEEET_S9_RKT0_RKNS0_12format_specsIT1_EENS1_11float_specsENS1_10locale_refEENKUlS3_E0_clES3_, symObjAddr: 0x6BF4, symBinAddr: 0xB678, symSize: 0x108 }
  - { offsetInCU: 0xFF66, offset: 0x2AA05, size: 0x8, addend: 0x0, symName: __ZN3fmt3v106detail12write_paddedILNS0_5align4typeE2ENS0_8appenderEcRZNS1_14do_write_floatIS5_NS1_9dragonbox10decimal_fpIdEEcNS1_14digit_groupingIcEEEET_SC_RKT0_RKNS0_12format_specsIT1_EENS1_11float_specsENS1_10locale_refEEUlS5_E2_EESD_SD_SK_mmOT2_, symObjAddr: 0x7264, symBinAddr: 0xBCE8, symSize: 0xB0 }
  - { offsetInCU: 0x10091, offset: 0x2AB30, size: 0x8, addend: 0x0, symName: __ZZN3fmt3v106detail14do_write_floatINS0_8appenderENS1_9dragonbox10decimal_fpIdEEcNS1_14digit_groupingIcEEEET_S9_RKT0_RKNS0_12format_specsIT1_EENS1_11float_specsENS1_10locale_refEENKUlS3_E2_clES3_, symObjAddr: 0x7314, symBinAddr: 0xBD98, symSize: 0x174 }
  - { offsetInCU: 0x101E1, offset: 0x2AC80, size: 0x8, addend: 0x0, symName: __ZN3fmt3v106detail17write_significandIcNS0_8appenderEyNS1_14digit_groupingIcEEEET0_S6_T1_iiRKT2_, symObjAddr: 0x6CFC, symBinAddr: 0xB780, symSize: 0x158 }
  - { offsetInCU: 0x107B4, offset: 0x2B253, size: 0x8, addend: 0x0, symName: __ZN3fmt3v106detail17write_significandINS0_8appenderEcyNS1_14digit_groupingIcEEEET_S6_T1_iiT0_RKT2_, symObjAddr: 0x6F8C, symBinAddr: 0xBA10, symSize: 0x2D8 }
  - { offsetInCU: 0x10FA4, offset: 0x2BA43, size: 0x8, addend: 0x0, symName: __ZN3fmt3v106detail12write_paddedILNS0_5align4typeE2ENS0_8appenderEcRZNS1_9write_ptrIcS5_mEET0_S7_T1_PKNS0_12format_specsIT_EEEUlS5_E_EES7_S7_RKNS9_IS8_EEmmOT2_, symObjAddr: 0x7790, symBinAddr: 0xC214, symSize: 0xB0 }
  - { offsetInCU: 0x110CF, offset: 0x2BB6E, size: 0x8, addend: 0x0, symName: __ZZN3fmt3v106detail10vformat_toIcEEvRNS1_6bufferIT_EENS0_17basic_string_viewIS4_EENS1_12vformat_argsIS4_E4typeENS1_10locale_refEEN14format_handler7on_textEPKcSF_, symObjAddr: 0x7840, symBinAddr: 0xC2C4, symSize: 0x54 }
  - { offsetInCU: 0x11267, offset: 0x2BD06, size: 0x8, addend: 0x0, symName: __ZN3fmt3v106detail7get_argINS0_20basic_format_contextINS0_8appenderEcEEiEEDTcldtfp_3argfp0_EERT_T0_, symObjAddr: 0x866C, symBinAddr: 0xD0F0, symSize: 0x38 }
  - { offsetInCU: 0x1135E, offset: 0x2BDFD, size: 0x8, addend: 0x0, symName: __ZN3fmt3v106detail15do_parse_arg_idIcRZNS1_23parse_replacement_fieldIcRZNS1_10vformat_toIcEEvRNS1_6bufferIT_EENS0_17basic_string_viewIS6_EENS1_12vformat_argsIS6_E4typeENS1_10locale_refEE14format_handlerEEPKS6_SI_SI_OT0_E10id_adapterEESI_SI_SI_SK_, symObjAddr: 0x86A4, symBinAddr: 0xD128, symSize: 0x144 }
  - { offsetInCU: 0x1137A, offset: 0x2BE19, size: 0x8, addend: 0x0, symName: __ZN3fmt3v106detail15do_parse_arg_idIcRZNS1_23parse_replacement_fieldIcRZNS1_10vformat_toIcEEvRNS1_6bufferIT_EENS0_17basic_string_viewIS6_EENS1_12vformat_argsIS6_E4typeENS1_10locale_refEE14format_handlerEEPKS6_SI_SI_OT0_E10id_adapterEESI_SI_SI_SK_, symObjAddr: 0x86A4, symBinAddr: 0xD128, symSize: 0x144 }
  - { offsetInCU: 0x114F8, offset: 0x2BF97, size: 0x8, addend: 0x0, symName: __ZN3fmt3v106detail21parse_nonnegative_intIcEEiRPKT_S5_i, symObjAddr: 0x87E8, symBinAddr: 0xD26C, symSize: 0xC0 }
  - { offsetInCU: 0x11CE5, offset: 0x2C784, size: 0x8, addend: 0x0, symName: __ZN3fmt3v106detail18parse_dynamic_specIcEEPKT_S5_S5_RiRNS1_7arg_refIS3_EERNS0_26basic_format_parse_contextIS3_EE, symObjAddr: 0x8B3C, symBinAddr: 0xD5C0, symSize: 0x114 }
  - { offsetInCU: 0x11E5D, offset: 0x2C8FC, size: 0x8, addend: 0x0, symName: __ZN3fmt3v106detail15parse_precisionIcEEPKT_S5_S5_RiRNS1_7arg_refIS3_EERNS0_26basic_format_parse_contextIS3_EE, symObjAddr: 0x8C50, symBinAddr: 0xD6D4, symSize: 0x34 }
  - { offsetInCU: 0x11E70, offset: 0x2C90F, size: 0x8, addend: 0x0, symName: __ZN3fmt3v106detail15parse_precisionIcEEPKT_S5_S5_RiRNS1_7arg_refIS3_EERNS0_26basic_format_parse_contextIS3_EE, symObjAddr: 0x8C50, symBinAddr: 0xD6D4, symSize: 0x34 }
  - { offsetInCU: 0x11EF5, offset: 0x2C994, size: 0x8, addend: 0x0, symName: __ZN3fmt3v106detail6fill_tIcEaSENS0_17basic_string_viewIcEE, symObjAddr: 0x8C84, symBinAddr: 0xD708, symSize: 0x50 }
  - { offsetInCU: 0x11F08, offset: 0x2C9A7, size: 0x8, addend: 0x0, symName: __ZN3fmt3v106detail19handle_dynamic_specINS1_13width_checkerENS0_20basic_format_contextINS0_8appenderEcEEEEvRiNS1_7arg_refINT0_9char_typeEEERS9_, symObjAddr: 0x89F4, symBinAddr: 0xD478, symSize: 0xA4 }
  - { offsetInCU: 0x11FA6, offset: 0x2CA45, size: 0x8, addend: 0x0, symName: __ZN3fmt3v106detail19handle_dynamic_specINS1_17precision_checkerENS0_20basic_format_contextINS0_8appenderEcEEEEvRiNS1_7arg_refINT0_9char_typeEEERS9_, symObjAddr: 0x8A98, symBinAddr: 0xD51C, symSize: 0xA4 }
  - { offsetInCU: 0x12044, offset: 0x2CAE3, size: 0x8, addend: 0x0, symName: __ZN3fmt3v106detail18write_int_noinlineIcNS0_8appenderEoEET0_S4_NS1_13write_int_argIT1_EERKNS0_12format_specsIT_EENS1_10locale_refE, symObjAddr: 0x9E50, symBinAddr: 0xE8D4, symSize: 0x7D4 }
  - { offsetInCU: 0x12D4D, offset: 0x2D7EC, size: 0x8, addend: 0x0, symName: __ZN3fmt3v106detail12write_paddedILNS0_5align4typeE2ENS0_8appenderEcRZNS1_9write_intIS5_cZNS1_9write_intIcS5_oEET0_S8_NS1_13write_int_argIT1_EERKNS0_12format_specsIT_EENS1_10locale_refEEUlS5_E_EESD_SD_ijRKNSC_IS8_EESA_EUlS5_E_EES8_S8_RKNSC_ISA_EEmmOT2_, symObjAddr: 0xA624, symBinAddr: 0xF0A8, symSize: 0x168 }
  - { offsetInCU: 0x12D7A, offset: 0x2D819, size: 0x8, addend: 0x0, symName: __ZN3fmt3v106detail5writeIcNS0_8appenderEfLi0EEET0_S4_T1_NS0_12format_specsIT_EENS1_10locale_refE, symObjAddr: 0xB014, symBinAddr: 0xFA98, symSize: 0xA8 }
  - { offsetInCU: 0x12EAE, offset: 0x2D94D, size: 0x8, addend: 0x0, symName: __ZN3fmt3v106detail5writeIcNS0_8appenderEdLi0EEET0_S4_T1_NS0_12format_specsIT_EENS1_10locale_refE, symObjAddr: 0xE350, symBinAddr: 0x12DD4, symSize: 0xA8 }
  - { offsetInCU: 0x12FE2, offset: 0x2DA81, size: 0x8, addend: 0x0, symName: __ZN3fmt3v106detail5writeIcNS0_8appenderEeLi0EEET0_S4_T1_NS0_12format_specsIT_EENS1_10locale_refE, symObjAddr: 0xE6C8, symBinAddr: 0x1314C, symSize: 0xA8 }
  - { offsetInCU: 0x13116, offset: 0x2DBB5, size: 0x8, addend: 0x0, symName: __ZN3fmt3v106detail5writeIcNS0_8appenderEEET0_S4_PKT_RKNS0_12format_specsIS5_EENS1_10locale_refE, symObjAddr: 0xEA40, symBinAddr: 0x134C4, symSize: 0x6C }
  - { offsetInCU: 0x13236, offset: 0x2DCD5, size: 0x8, addend: 0x0, symName: __ZN3fmt3v106detail5writeIcNS0_8appenderEEET0_S4_NS0_17basic_string_viewIT_EERKNS0_12format_specsIS6_EE, symObjAddr: 0xEAAC, symBinAddr: 0x13530, symSize: 0x100 }
  - { offsetInCU: 0x133ED, offset: 0x2DE8C, size: 0x8, addend: 0x0, symName: __ZN3fmt3v106detail18write_int_noinlineIcNS0_8appenderEyEET0_S4_NS1_13write_int_argIT1_EERKNS0_12format_specsIT_EENS1_10locale_refE, symObjAddr: 0x8FBC, symBinAddr: 0xDA40, symSize: 0x67C }
  - { offsetInCU: 0x1412A, offset: 0x2EBC9, size: 0x8, addend: 0x0, symName: __ZN3fmt3v106detail12write_paddedILNS0_5align4typeE2ENS0_8appenderEcRZNS1_9write_intIS5_cZNS1_9write_intIcS5_yEET0_S8_NS1_13write_int_argIT1_EERKNS0_12format_specsIT_EENS1_10locale_refEEUlS5_E_EESD_SD_ijRKNSC_IS8_EESA_EUlS5_E_EES8_S8_RKNSC_ISA_EEmmOT2_, symObjAddr: 0x9638, symBinAddr: 0xE0BC, symSize: 0x164 }
  - { offsetInCU: 0x1417E, offset: 0x2EC1D, size: 0x8, addend: 0x0, symName: __ZN3fmt3v106detail21parse_nonnegative_intIcEEiRPKT_S5_i, symObjAddr: 0x87E8, symBinAddr: 0xD26C, symSize: 0xC0 }
  - { offsetInCU: 0x14229, offset: 0x2ECC8, size: 0x8, addend: 0x0, symName: __ZZN3fmt3v106detail23parse_replacement_fieldIcRZNS1_10vformat_toIcEEvRNS1_6bufferIT_EENS0_17basic_string_viewIS5_EENS1_12vformat_argsIS5_E4typeENS1_10locale_refEE14format_handlerEEPKS5_SH_SH_OT0_EN10id_adapter7on_nameENS8_IcEE, symObjAddr: 0x88A8, symBinAddr: 0xD32C, symSize: 0x3C }
  - { offsetInCU: 0x14244, offset: 0x2ECE3, size: 0x8, addend: 0x0, symName: __ZN3fmt3v106detail7get_argINS0_20basic_format_contextINS0_8appenderEcEENS0_17basic_string_viewIcEEEEDTcldtfp_3argfp0_EERT_T0_, symObjAddr: 0x8EB0, symBinAddr: 0xD934, symSize: 0x38 }
  - { offsetInCU: 0x14336, offset: 0x2EDD5, size: 0x8, addend: 0x0, symName: __ZNK3fmt3v1017basic_format_argsINS0_20basic_format_contextINS0_8appenderEcEEE3getIcEENS0_16basic_format_argIS4_EENS0_17basic_string_viewIT_EE, symObjAddr: 0x8EE8, symBinAddr: 0xD96C, symSize: 0x44 }
  - { offsetInCU: 0x14352, offset: 0x2EDF1, size: 0x8, addend: 0x0, symName: __ZN3fmt3v106detail16get_dynamic_specINS1_13width_checkerENS0_16basic_format_argINS0_20basic_format_contextINS0_8appenderEcEEEENS1_13error_handlerEEEiT0_T1_, symObjAddr: 0x8E20, symBinAddr: 0xD8A4, symSize: 0x90 }
  - { offsetInCU: 0x14449, offset: 0x2EEE8, size: 0x8, addend: 0x0, symName: __ZN3fmt3v106detail7get_argINS0_20basic_format_contextINS0_8appenderEcEENS0_17basic_string_viewIcEEEEDTcldtfp_3argfp0_EERT_T0_, symObjAddr: 0x8EB0, symBinAddr: 0xD934, symSize: 0x38 }
  - { offsetInCU: 0x1446F, offset: 0x2EF0E, size: 0x8, addend: 0x0, symName: __ZN3fmt3v106detail16get_dynamic_specINS1_17precision_checkerENS0_16basic_format_argINS0_20basic_format_contextINS0_8appenderEcEEEENS1_13error_handlerEEEiT0_T1_, symObjAddr: 0x8F2C, symBinAddr: 0xD9B0, symSize: 0x90 }
  - { offsetInCU: 0x14566, offset: 0x2F005, size: 0x8, addend: 0x0, symName: __ZN3fmt3v106detail18write_int_noinlineIcNS0_8appenderEyEET0_S4_NS1_13write_int_argIT1_EERKNS0_12format_specsIT_EENS1_10locale_refE, symObjAddr: 0x8FBC, symBinAddr: 0xDA40, symSize: 0x67C }
  - { offsetInCU: 0x145E1, offset: 0x2F080, size: 0x8, addend: 0x0, symName: __ZN3fmt3v106detail15do_parse_arg_idIcRNS1_23dynamic_spec_id_handlerIcEEEEPKT_S8_S8_OT0_, symObjAddr: 0x8CD4, symBinAddr: 0xD758, symSize: 0x14C }
  - { offsetInCU: 0x1473F, offset: 0x2F1DE, size: 0x8, addend: 0x0, symName: __ZN3fmt3v106detail16get_dynamic_specINS1_13width_checkerENS0_16basic_format_argINS0_20basic_format_contextINS0_8appenderEcEEEENS1_13error_handlerEEEiT0_T1_, symObjAddr: 0x8E20, symBinAddr: 0xD8A4, symSize: 0x90 }
  - { offsetInCU: 0x1525F, offset: 0x2FCFE, size: 0x8, addend: 0x0, symName: __ZN3fmt3v106detail12write_paddedILNS0_5align4typeE2ENS0_8appenderEcRZNS1_9write_intIS5_cZNS1_9write_intIcS5_yEET0_S8_NS1_13write_int_argIT1_EERKNS0_12format_specsIT_EENS1_10locale_refEEUlS5_E_EESD_SD_ijRKNSC_IS8_EESA_EUlS5_E_EES8_S8_RKNSC_ISA_EEmmOT2_, symObjAddr: 0x9638, symBinAddr: 0xE0BC, symSize: 0x164 }
  - { offsetInCU: 0x1550C, offset: 0x2FFAB, size: 0x8, addend: 0x0, symName: __ZN3fmt3v106detail12write_paddedILNS0_5align4typeE2ENS0_8appenderEcRZNS1_9write_intIS5_cZNS1_9write_intIcS5_yEET0_S8_NS1_13write_int_argIT1_EERKNS0_12format_specsIT_EENS1_10locale_refEEUlS5_E0_EESD_SD_ijRKNSC_IS8_EESA_EUlS5_E_EES8_S8_RKNSC_ISA_EEmmOT2_, symObjAddr: 0x979C, symBinAddr: 0xE220, symSize: 0xB0 }
  - { offsetInCU: 0x15637, offset: 0x300D6, size: 0x8, addend: 0x0, symName: __ZZN3fmt3v106detail9write_intINS0_8appenderEcZNS1_9write_intIcS3_yEET0_S5_NS1_13write_int_argIT1_EERKNS0_12format_specsIT_EENS1_10locale_refEEUlS3_E0_EESA_SA_ijRKNS9_IS5_EES7_ENKUlS3_E_clES3_, symObjAddr: 0x984C, symBinAddr: 0xE2D0, symSize: 0x1AC }
  - { offsetInCU: 0x1566E, offset: 0x3010D, size: 0x8, addend: 0x0, symName: __ZN3fmt3v106detail12write_paddedILNS0_5align4typeE2ENS0_8appenderEcRZNS1_9write_intIS5_cZNS1_9write_intIcS5_yEET0_S8_NS1_13write_int_argIT1_EERKNS0_12format_specsIT_EENS1_10locale_refEEUlS5_E1_EESD_SD_ijRKNSC_IS8_EESA_EUlS5_E_EES8_S8_RKNSC_ISA_EEmmOT2_, symObjAddr: 0x99F8, symBinAddr: 0xE47C, symSize: 0xB0 }
  - { offsetInCU: 0x15799, offset: 0x30238, size: 0x8, addend: 0x0, symName: __ZZN3fmt3v106detail9write_intINS0_8appenderEcZNS1_9write_intIcS3_yEET0_S5_NS1_13write_int_argIT1_EERKNS0_12format_specsIT_EENS1_10locale_refEEUlS3_E1_EESA_SA_ijRKNS9_IS5_EES7_ENKUlS3_E_clES3_, symObjAddr: 0x9AA8, symBinAddr: 0xE52C, symSize: 0x180 }
  - { offsetInCU: 0x157D0, offset: 0x3026F, size: 0x8, addend: 0x0, symName: __ZN3fmt3v106detail12write_paddedILNS0_5align4typeE2ENS0_8appenderEcRZNS1_9write_intIS5_cZNS1_9write_intIcS5_yEET0_S8_NS1_13write_int_argIT1_EERKNS0_12format_specsIT_EENS1_10locale_refEEUlS5_E2_EESD_SD_ijRKNSC_IS8_EESA_EUlS5_E_EES8_S8_RKNSC_ISA_EEmmOT2_, symObjAddr: 0x9C28, symBinAddr: 0xE6AC, symSize: 0xB0 }
  - { offsetInCU: 0x158FB, offset: 0x3039A, size: 0x8, addend: 0x0, symName: __ZZN3fmt3v106detail9write_intINS0_8appenderEcZNS1_9write_intIcS3_yEET0_S5_NS1_13write_int_argIT1_EERKNS0_12format_specsIT_EENS1_10locale_refEEUlS3_E2_EESA_SA_ijRKNS9_IS5_EES7_ENKUlS3_E_clES3_, symObjAddr: 0x9CD8, symBinAddr: 0xE75C, symSize: 0x178 }
  - { offsetInCU: 0x16436, offset: 0x30ED5, size: 0x8, addend: 0x0, symName: __ZN3fmt3v106detail12write_paddedILNS0_5align4typeE2ENS0_8appenderEcRZNS1_9write_intIS5_cZNS1_9write_intIcS5_oEET0_S8_NS1_13write_int_argIT1_EERKNS0_12format_specsIT_EENS1_10locale_refEEUlS5_E0_EESD_SD_ijRKNSC_IS8_EESA_EUlS5_E_EES8_S8_RKNSC_ISA_EEmmOT2_, symObjAddr: 0xA78C, symBinAddr: 0xF210, symSize: 0xB0 }
  - { offsetInCU: 0x16561, offset: 0x31000, size: 0x8, addend: 0x0, symName: __ZZN3fmt3v106detail9write_intINS0_8appenderEcZNS1_9write_intIcS3_oEET0_S5_NS1_13write_int_argIT1_EERKNS0_12format_specsIT_EENS1_10locale_refEEUlS3_E0_EESA_SA_ijRKNS9_IS5_EES7_ENKUlS3_E_clES3_, symObjAddr: 0xA83C, symBinAddr: 0xF2C0, symSize: 0x1CC }
  - { offsetInCU: 0x16598, offset: 0x31037, size: 0x8, addend: 0x0, symName: __ZN3fmt3v106detail12write_paddedILNS0_5align4typeE2ENS0_8appenderEcRZNS1_9write_intIS5_cZNS1_9write_intIcS5_oEET0_S8_NS1_13write_int_argIT1_EERKNS0_12format_specsIT_EENS1_10locale_refEEUlS5_E1_EESD_SD_ijRKNSC_IS8_EESA_EUlS5_E_EES8_S8_RKNSC_ISA_EEmmOT2_, symObjAddr: 0xAA08, symBinAddr: 0xF48C, symSize: 0xB0 }
  - { offsetInCU: 0x166C3, offset: 0x31162, size: 0x8, addend: 0x0, symName: __ZZN3fmt3v106detail9write_intINS0_8appenderEcZNS1_9write_intIcS3_oEET0_S5_NS1_13write_int_argIT1_EERKNS0_12format_specsIT_EENS1_10locale_refEEUlS3_E1_EESA_SA_ijRKNS9_IS5_EES7_ENKUlS3_E_clES3_, symObjAddr: 0xAAB8, symBinAddr: 0xF53C, symSize: 0x1A4 }
  - { offsetInCU: 0x166FA, offset: 0x31199, size: 0x8, addend: 0x0, symName: __ZN3fmt3v106detail12write_paddedILNS0_5align4typeE2ENS0_8appenderEcRZNS1_9write_intIS5_cZNS1_9write_intIcS5_oEET0_S8_NS1_13write_int_argIT1_EERKNS0_12format_specsIT_EENS1_10locale_refEEUlS5_E2_EESD_SD_ijRKNSC_IS8_EESA_EUlS5_E_EES8_S8_RKNSC_ISA_EEmmOT2_, symObjAddr: 0xAC5C, symBinAddr: 0xF6E0, symSize: 0xB0 }
  - { offsetInCU: 0x16825, offset: 0x312C4, size: 0x8, addend: 0x0, symName: __ZZN3fmt3v106detail9write_intINS0_8appenderEcZNS1_9write_intIcS3_oEET0_S5_NS1_13write_int_argIT1_EERKNS0_12format_specsIT_EENS1_10locale_refEEUlS3_E2_EESA_SA_ijRKNS9_IS5_EES7_ENKUlS3_E_clES3_, symObjAddr: 0xAD0C, symBinAddr: 0xF790, symSize: 0x198 }
  - { offsetInCU: 0x1685C, offset: 0x312FB, size: 0x8, addend: 0x0, symName: __ZN3fmt3v106detail12write_paddedILNS0_5align4typeE2ENS0_8appenderEcRZNS1_9write_intIS5_cZNS1_9write_intIcS5_oEET0_S8_NS1_13write_int_argIT1_EERKNS0_12format_specsIT_EENS1_10locale_refEEUlS5_E_EESD_SD_ijRKNSC_IS8_EESA_EUlS5_E_EES8_S8_RKNSC_ISA_EEmmOT2_, symObjAddr: 0xA624, symBinAddr: 0xF0A8, symSize: 0x168 }
  - { offsetInCU: 0x16C6D, offset: 0x3170C, size: 0x8, addend: 0x0, symName: __ZN3fmt3v106detail16check_char_specsIcEEbRKNS0_12format_specsIT_EE, symObjAddr: 0xAFA8, symBinAddr: 0xFA2C, symSize: 0x6C }
  - { offsetInCU: 0x16CA1, offset: 0x31740, size: 0x8, addend: 0x0, symName: __ZN3fmt3v106detail5writeIcNS0_8appenderEfLi0EEET0_S4_T1_NS0_12format_specsIT_EENS1_10locale_refE, symObjAddr: 0xB014, symBinAddr: 0xFA98, symSize: 0xA8 }
  - { offsetInCU: 0x16CF1, offset: 0x31790, size: 0x8, addend: 0x0, symName: __ZN3fmt3v106detail11write_floatIcNS0_8appenderEfEET0_S4_T1_NS0_12format_specsIT_EENS1_10locale_refE, symObjAddr: 0xB0BC, symBinAddr: 0xFB40, symSize: 0x2D8 }
  - { offsetInCU: 0x1757B, offset: 0x3201A, size: 0x8, addend: 0x0, symName: __ZN3fmt3v106detail21parse_float_type_specINS1_13error_handlerEcEENS1_11float_specsERKNS0_12format_specsIT0_EEOT_, symObjAddr: 0xB394, symBinAddr: 0xFE18, symSize: 0xBC }
  - { offsetInCU: 0x175F1, offset: 0x32090, size: 0x8, addend: 0x0, symName: __ZN3fmt3v106detail15format_hexfloatIdLi0EEEvT_iNS1_11float_specsERNS1_6bufferIcEE, symObjAddr: 0xB450, symBinAddr: 0xFED4, symSize: 0x3B8 }
  - { offsetInCU: 0x1760D, offset: 0x320AC, size: 0x8, addend: 0x0, symName: __ZN3fmt3v106detail12write_paddedILNS0_5align4typeE2ENS0_8appenderEcRZNS1_11write_bytesILS4_2EcS5_EET1_S7_NS0_17basic_string_viewIcEERKNS0_12format_specsIT0_EEEUlS5_E_EESB_SB_RKNSA_IS7_EEmmOT2_, symObjAddr: 0xBFDC, symBinAddr: 0x10A60, symSize: 0xC8 }
  - { offsetInCU: 0x177BD, offset: 0x3225C, size: 0x8, addend: 0x0, symName: __ZN3fmt3v106detail13format_dragonENS1_8basic_fpIoEEjiRNS1_6bufferIcEERi, symObjAddr: 0xC0A4, symBinAddr: 0x10B28, symSize: 0x6F8 }
  - { offsetInCU: 0x177F4, offset: 0x32293, size: 0x8, addend: 0x0, symName: __ZN3fmt3v106detail12format_floatIdEEiT_iNS1_11float_specsERNS1_6bufferIcEE, symObjAddr: 0xB808, symBinAddr: 0x1028C, symSize: 0x7D4 }
  - { offsetInCU: 0x18322, offset: 0x32DC1, size: 0x8, addend: 0x0, symName: __ZN3fmt3v106detail14do_write_floatINS0_8appenderENS1_14big_decimal_fpEcNS1_14digit_groupingIcEEEET_S7_RKT0_RKNS0_12format_specsIT1_EENS1_11float_specsENS1_10locale_refE, symObjAddr: 0xD50C, symBinAddr: 0x11F90, symSize: 0x4C0 }
  - { offsetInCU: 0x18E08, offset: 0x338A7, size: 0x8, addend: 0x0, symName: __ZN3fmt3v106detail13format_dragonENS1_8basic_fpIoEEjiRNS1_6bufferIcEERi, symObjAddr: 0xC0A4, symBinAddr: 0x10B28, symSize: 0x6F8 }
  - { offsetInCU: 0x1A63E, offset: 0x350DD, size: 0x8, addend: 0x0, symName: __ZN3fmt3v106detail11add_compareERKNS1_6bigintES4_S4_, symObjAddr: 0xCA1C, symBinAddr: 0x114A0, symSize: 0x150 }
  - { offsetInCU: 0x1A9DC, offset: 0x3547B, size: 0x8, addend: 0x0, symName: __ZN3fmt3v106detail6bigint13divmod_assignERKS2_, symObjAddr: 0xCB6C, symBinAddr: 0x115F0, symSize: 0xB4 }
  - { offsetInCU: 0x1A9EE, offset: 0x3548D, size: 0x8, addend: 0x0, symName: __ZN3fmt3v106detail7compareERKNS1_6bigintES4_, symObjAddr: 0xCC20, symBinAddr: 0x116A4, symSize: 0xD4 }
  - { offsetInCU: 0x1AB95, offset: 0x35634, size: 0x8, addend: 0x0, symName: __ZN3fmt3v1019basic_memory_bufferIjLm32ENSt3__19allocatorIjEEE4growEm, symObjAddr: 0xCCF4, symBinAddr: 0x11778, symSize: 0xAC }
  - { offsetInCU: 0x1AE03, offset: 0x358A2, size: 0x8, addend: 0x0, symName: __ZN3fmt3v106detail12write_paddedILNS0_5align4typeE2ENS0_8appenderEcRZNS1_14do_write_floatIS5_NS1_14big_decimal_fpEcNS1_14digit_groupingIcEEEET_SA_RKT0_RKNS0_12format_specsIT1_EENS1_11float_specsENS1_10locale_refEEUlS5_E1_EESB_SB_SI_mmOT2_, symObjAddr: 0xDEDC, symBinAddr: 0x12960, symSize: 0x138 }
  - { offsetInCU: 0x1AFE8, offset: 0x35A87, size: 0x8, addend: 0x0, symName: __ZN3fmt3v106detail17write_significandINS0_8appenderEcPKcNS1_14digit_groupingIcEEEET_S8_T1_iiT0_RKT2_, symObjAddr: 0xE014, symBinAddr: 0x12A98, symSize: 0x164 }
  - { offsetInCU: 0x1B01F, offset: 0x35ABE, size: 0x8, addend: 0x0, symName: __ZN3fmt3v106detail12write_paddedILNS0_5align4typeE2ENS0_8appenderEcRZNS1_14do_write_floatIS5_NS1_14big_decimal_fpEcNS1_14digit_groupingIcEEEET_SA_RKT0_RKNS0_12format_specsIT1_EENS1_11float_specsENS1_10locale_refEEUlS5_E_EESB_SB_SI_mmOT2_, symObjAddr: 0xD9CC, symBinAddr: 0x12450, symSize: 0x174 }
  - { offsetInCU: 0x1B292, offset: 0x35D31, size: 0x8, addend: 0x0, symName: __ZN3fmt3v106detail17write_significandINS0_8appenderEcEET_S4_PKciiT0_, symObjAddr: 0xDB40, symBinAddr: 0x125C4, symSize: 0xA8 }
  - { offsetInCU: 0x1B2C9, offset: 0x35D68, size: 0x8, addend: 0x0, symName: __ZN3fmt3v106detail17write_significandINS0_8appenderEcEET_S4_PKciiT0_, symObjAddr: 0xDB40, symBinAddr: 0x125C4, symSize: 0xA8 }
  - { offsetInCU: 0x1B3F7, offset: 0x35E96, size: 0x8, addend: 0x0, symName: __ZN3fmt3v106detail12write_paddedILNS0_5align4typeE2ENS0_8appenderEcRZNS1_14do_write_floatIS5_NS1_14big_decimal_fpEcNS1_14digit_groupingIcEEEET_SA_RKT0_RKNS0_12format_specsIT1_EENS1_11float_specsENS1_10locale_refEEUlS5_E0_EESB_SB_SI_mmOT2_, symObjAddr: 0xDBE8, symBinAddr: 0x1266C, symSize: 0xB0 }
  - { offsetInCU: 0x1B522, offset: 0x35FC1, size: 0x8, addend: 0x0, symName: __ZZN3fmt3v106detail14do_write_floatINS0_8appenderENS1_14big_decimal_fpEcNS1_14digit_groupingIcEEEET_S7_RKT0_RKNS0_12format_specsIT1_EENS1_11float_specsENS1_10locale_refEENKUlS3_E0_clES3_, symObjAddr: 0xDC98, symBinAddr: 0x1271C, symSize: 0x108 }
  - { offsetInCU: 0x1B559, offset: 0x35FF8, size: 0x8, addend: 0x0, symName: __ZN3fmt3v106detail12write_paddedILNS0_5align4typeE2ENS0_8appenderEcRZNS1_14do_write_floatIS5_NS1_14big_decimal_fpEcNS1_14digit_groupingIcEEEET_SA_RKT0_RKNS0_12format_specsIT1_EENS1_11float_specsENS1_10locale_refEEUlS5_E2_EESB_SB_SI_mmOT2_, symObjAddr: 0xE178, symBinAddr: 0x12BFC, symSize: 0xB0 }
  - { offsetInCU: 0x1B684, offset: 0x36123, size: 0x8, addend: 0x0, symName: __ZZN3fmt3v106detail14do_write_floatINS0_8appenderENS1_14big_decimal_fpEcNS1_14digit_groupingIcEEEET_S7_RKT0_RKNS0_12format_specsIT1_EENS1_11float_specsENS1_10locale_refEENKUlS3_E2_clES3_, symObjAddr: 0xE228, symBinAddr: 0x12CAC, symSize: 0x128 }
  - { offsetInCU: 0x1B6BB, offset: 0x3615A, size: 0x8, addend: 0x0, symName: __ZN3fmt3v106detail17write_significandIcNS0_8appenderEPKcNS1_14digit_groupingIcEEEET0_S8_T1_iiRKT2_, symObjAddr: 0xDDA0, symBinAddr: 0x12824, symSize: 0x13C }
  - { offsetInCU: 0x1BC27, offset: 0x366C6, size: 0x8, addend: 0x0, symName: __ZN3fmt3v106detail17write_significandINS0_8appenderEcPKcNS1_14digit_groupingIcEEEET_S8_T1_iiT0_RKT2_, symObjAddr: 0xE014, symBinAddr: 0x12A98, symSize: 0x164 }
  - { offsetInCU: 0x1C107, offset: 0x36BA6, size: 0x8, addend: 0x0, symName: __ZN3fmt3v106detail11write_floatIcNS0_8appenderEdEET0_S4_T1_NS0_12format_specsIT_EENS1_10locale_refE, symObjAddr: 0xE3F8, symBinAddr: 0x12E7C, symSize: 0x2D0 }
  - { offsetInCU: 0x1C824, offset: 0x372C3, size: 0x8, addend: 0x0, symName: __ZN3fmt3v106detail11write_floatIcNS0_8appenderEeEET0_S4_T1_NS0_12format_specsIT_EENS1_10locale_refE, symObjAddr: 0xE770, symBinAddr: 0x131F4, symSize: 0x2D0 }
  - { offsetInCU: 0x1CF90, offset: 0x37A2F, size: 0x8, addend: 0x0, symName: __ZN3fmt3v106detail20write_escaped_stringIcNS1_17counting_iteratorEEET0_S4_NS0_17basic_string_viewIT_EE, symObjAddr: 0xEBAC, symBinAddr: 0x13630, symSize: 0xA0 }
  - { offsetInCU: 0x1D134, offset: 0x37BD3, size: 0x8, addend: 0x0, symName: __ZN3fmt3v106detail12write_paddedILNS0_5align4typeE1ENS0_8appenderEcZNS1_5writeIcS5_EET0_S7_NS0_17basic_string_viewIT_EERKNS0_12format_specsIS9_EEEUlS5_E_EES7_S7_RKNSB_IT1_EEmmOT2_, symObjAddr: 0xEC4C, symBinAddr: 0x136D0, symSize: 0xE4 }
  - { offsetInCU: 0x1D158, offset: 0x37BF7, size: 0x8, addend: 0x0, symName: __ZN3fmt3v106detail18for_each_codepointIZNS1_13compute_widthENS0_17basic_string_viewIcEEE17count_code_pointsEEvS4_T_, symObjAddr: 0xF168, symBinAddr: 0x13BEC, symSize: 0xE4 }
  - { offsetInCU: 0x1D302, offset: 0x37DA1, size: 0x8, addend: 0x0, symName: __ZZN3fmt3v106detail18for_each_codepointIZNS1_13compute_widthENS0_17basic_string_viewIcEEE17count_code_pointsEEvS4_T_ENKUlPKcS8_E_clES8_S8_, symObjAddr: 0xF24C, symBinAddr: 0x13CD0, symSize: 0x130 }
  - { offsetInCU: 0x1D31D, offset: 0x37DBC, size: 0x8, addend: 0x0, symName: __ZN3fmt3v106detail12write_paddedILNS0_5align4typeE1ENS0_8appenderEcZNS1_5writeIcS5_EET0_S7_NS0_17basic_string_viewIT_EERKNS0_12format_specsIS9_EEEUlS5_E_EES7_S7_RKNSB_IT1_EEmmOT2_, symObjAddr: 0xEC4C, symBinAddr: 0x136D0, symSize: 0xE4 }
  - { offsetInCU: 0x1D4BB, offset: 0x37F5A, size: 0x8, addend: 0x0, symName: __ZN3fmt3v106detail16write_escaped_cpINS1_17counting_iteratorEcEET_S4_RKNS1_18find_escape_resultIT0_EE, symObjAddr: 0xED30, symBinAddr: 0x137B4, symSize: 0x1C4 }
  - { offsetInCU: 0x1D60E, offset: 0x380AD, size: 0x8, addend: 0x0, symName: __ZN3fmt3v106detail18for_each_codepointIZNS1_11find_escapeEPKcS4_EUljNS0_17basic_string_viewIcEEE_EEvS6_T_, symObjAddr: 0xEEF4, symBinAddr: 0x13978, symSize: 0xE4 }
  - { offsetInCU: 0x1D7B8, offset: 0x38257, size: 0x8, addend: 0x0, symName: __ZZN3fmt3v106detail18for_each_codepointIZNS1_11find_escapeEPKcS4_EUljNS0_17basic_string_viewIcEEE_EEvS6_T_ENKUlS4_S4_E_clES4_S4_, symObjAddr: 0xEFD8, symBinAddr: 0x13A5C, symSize: 0x190 }
  - { offsetInCU: 0x1D7D3, offset: 0x38272, size: 0x8, addend: 0x0, symName: __ZN3fmt3v106detail16write_escaped_cpINS1_17counting_iteratorEcEET_S4_RKNS1_18find_escape_resultIT0_EE, symObjAddr: 0xED30, symBinAddr: 0x137B4, symSize: 0x1C4 }
  - { offsetInCU: 0x1DB17, offset: 0x385B6, size: 0x8, addend: 0x0, symName: __ZN3fmt3v106detail18for_each_codepointIZNS1_11find_escapeEPKcS4_EUljNS0_17basic_string_viewIcEEE_EEvS6_T_, symObjAddr: 0xEEF4, symBinAddr: 0x13978, symSize: 0xE4 }
  - { offsetInCU: 0x1DB3B, offset: 0x385DA, size: 0x8, addend: 0x0, symName: __ZN3fmt3v106detail20write_escaped_stringIcNS0_8appenderEEET0_S4_NS0_17basic_string_viewIT_EE, symObjAddr: 0xF450, symBinAddr: 0x13ED4, symSize: 0x110 }
  - { offsetInCU: 0x1DD51, offset: 0x387F0, size: 0x8, addend: 0x0, symName: __ZN3fmt3v1010vformat_toINS0_8appenderELi0EEET_S3_NS0_17basic_string_viewIcEENS0_17basic_format_argsINS0_20basic_format_contextIS2_cEEEE, symObjAddr: 0xF560, symBinAddr: 0x13FE4, symSize: 0xC0 }
  - { offsetInCU: 0x1DF2F, offset: 0x389CE, size: 0x8, addend: 0x0, symName: __ZN3fmt3v106detail8copy_strIcPcNS0_8appenderEEET1_T0_S6_S5_, symObjAddr: 0xF660, symBinAddr: 0x140E4, symSize: 0x78 }
  - { offsetInCU: 0x1E007, offset: 0x38AA6, size: 0x8, addend: 0x0, symName: __ZN3fmt3v106detail9write_intINS0_8appenderEycEET_S4_T0_jRKNS0_12format_specsIT1_EERKNS1_14digit_groupingIS7_EE, symObjAddr: 0x10154, symBinAddr: 0x14BD8, symSize: 0x108 }
  - { offsetInCU: 0x1E1E2, offset: 0x38C81, size: 0x8, addend: 0x0, symName: __ZN3fmt3v106detail9write_intINS0_8appenderEocEET_S4_T0_jRKNS0_12format_specsIT1_EERKNS1_14digit_groupingIS7_EE, symObjAddr: 0x10364, symBinAddr: 0x14DE8, symSize: 0x1C4 }
  - { offsetInCU: 0x1E3C0, offset: 0x38E5F, size: 0x8, addend: 0x0, symName: __ZN3fmt3v106detail12write_paddedILNS0_5align4typeE2ENS0_8appenderEcZNS1_9write_intIS5_ycEET_S7_T0_jRKNS0_12format_specsIT1_EERKNS1_14digit_groupingISA_EEEUlS5_E_EES8_S8_SD_mmOT2_, symObjAddr: 0x1025C, symBinAddr: 0x14CE0, symSize: 0x108 }
  - { offsetInCU: 0x1E5B7, offset: 0x39056, size: 0x8, addend: 0x0, symName: __ZN3fmt3v106detail9write_intINS0_8appenderEocEET_S4_T0_jRKNS0_12format_specsIT1_EERKNS1_14digit_groupingIS7_EE, symObjAddr: 0x10364, symBinAddr: 0x14DE8, symSize: 0x1C4 }
  - { offsetInCU: 0x1E5EE, offset: 0x3908D, size: 0x8, addend: 0x0, symName: __ZN3fmt3v106detail12write_paddedILNS0_5align4typeE2ENS0_8appenderEcZNS1_9write_intIS5_ocEET_S7_T0_jRKNS0_12format_specsIT1_EERKNS1_14digit_groupingISA_EEEUlS5_E_EES8_S8_SD_mmOT2_, symObjAddr: 0x10528, symBinAddr: 0x14FAC, symSize: 0x108 }
  - { offsetInCU: 0x1E7E5, offset: 0x39284, size: 0x8, addend: 0x0, symName: __ZNSt3__112basic_stringIcNS_11char_traitsIcEENS_9allocatorIcEEEC2B7v160006EPKcm, symObjAddr: 0x10630, symBinAddr: 0x150B4, symSize: 0x94 }
  - { offsetInCU: 0x1E8B8, offset: 0x39357, size: 0x8, addend: 0x0, symName: __ZN3fmt3v1012format_facetINSt3__16localeEE2idE, symObjAddr: 0x12430, symBinAddr: 0xAE8228, symSize: 0x0 }
  - { offsetInCU: 0x1F9E6, offset: 0x3A485, size: 0x8, addend: 0x0, symName: __ZN3fmt3v1010vformat_toINS0_8appenderELi0EEET_S3_NS0_17basic_string_viewIcEENS0_17basic_format_argsINS0_20basic_format_contextIS2_cEEEE, symObjAddr: 0xF560, symBinAddr: 0x13FE4, symSize: 0xC0 }
  - { offsetInCU: 0x1FDAE, offset: 0x3A84D, size: 0x8, addend: 0x0, symName: __ZN3fmt3v1013vsystem_errorEiNS0_17basic_string_viewIcEENS0_17basic_format_argsINS0_20basic_format_contextINS0_8appenderEcEEEE, symObjAddr: 0x694, symBinAddr: 0x51C8, symSize: 0xB4 }
  - { offsetInCU: 0x200D9, offset: 0x3AB78, size: 0x8, addend: 0x0, symName: __ZN3fmt3v107vformatENS0_17basic_string_viewIcEENS0_17basic_format_argsINS0_20basic_format_contextINS0_8appenderEcEEEE, symObjAddr: 0x748, symBinAddr: 0x527C, symSize: 0xD0 }
  - { offsetInCU: 0x2073F, offset: 0x3B1DE, size: 0x8, addend: 0x0, symName: __ZN3fmt3v1019format_system_errorERNS0_6detail6bufferIcEEiPKc, symObjAddr: 0xA9C, symBinAddr: 0x55D0, symSize: 0xAC }
  - { offsetInCU: 0x2086E, offset: 0x3B30D, size: 0x8, addend: 0x0, symName: __ZN3fmt3v1019report_system_errorEiPKc, symObjAddr: 0xB8C, symBinAddr: 0x56C0, symSize: 0x14 }
  - { offsetInCU: 0x20904, offset: 0x3B3A3, size: 0x8, addend: 0x0, symName: __ZN3fmt3v1012system_errorIJEEENSt3__112system_errorEiNS0_19basic_format_stringIcJDpNS0_13type_identityIT_E4typeEEEEDpOS6_, symObjAddr: 0x2564, symBinAddr: 0x6FE8, symSize: 0x24 }
  - { offsetInCU: 0x2097C, offset: 0x3B41B, size: 0x8, addend: 0x0, symName: __ZN3fmt3v106vprintEP7__sFILENS0_17basic_string_viewIcEENS0_17basic_format_argsINS0_20basic_format_contextINS0_8appenderEcEEEE, symObjAddr: 0xF9C, symBinAddr: 0x5AD0, symSize: 0xC0 }
  - { offsetInCU: 0x20CB4, offset: 0x3B753, size: 0x8, addend: 0x0, symName: __ZN3fmt3v106vprintENS0_17basic_string_viewIcEENS0_17basic_format_argsINS0_20basic_format_contextINS0_8appenderEcEEEE, symObjAddr: 0x105C, symBinAddr: 0x5B90, symSize: 0x20 }
  - { offsetInCU: 0x210C2, offset: 0x3BB61, size: 0x8, addend: 0x0, symName: __ZN3fmt3v106detail9dragonbox14cache_accessorIdE16get_cached_powerEi, symObjAddr: 0x81C, symBinAddr: 0x5350, symSize: 0x130 }
  - { offsetInCU: 0x210E2, offset: 0x3BB81, size: 0x8, addend: 0x0, symName: __ZZN3fmt3v106detail9dragonbox14cache_accessorIdE16get_cached_powerEiE18pow10_significands, symObjAddr: 0x11558, symBinAddr: 0x92F038, symSize: 0x0 }
  - { offsetInCU: 0x210F9, offset: 0x3BB98, size: 0x8, addend: 0x0, symName: __ZZN3fmt3v106detail9dragonbox14cache_accessorIdE16get_cached_powerEiE14powers_of_5_64, symObjAddr: 0x116D8, symBinAddr: 0x92F1B8, symSize: 0x0 }
  - { offsetInCU: 0x212A3, offset: 0x3BD42, size: 0x8, addend: 0x0, symName: __ZN3fmt3v106detail13utf8_to_utf16C2ENS0_17basic_string_viewIcEE, symObjAddr: 0x94C, symBinAddr: 0x5480, symSize: 0x14C }
  - { offsetInCU: 0x2862F, offset: 0x430CE, size: 0x8, addend: 0x0, symName: __ZN3fmt3v106detail6bigint8multiplyIoLi0EEEvT_, symObjAddr: 0xD1B4, symBinAddr: 0x11C38, symSize: 0xE4 }
  - { offsetInCU: 0x2A602, offset: 0x450A1, size: 0x8, addend: 0x0, symName: __ZN3fmt3v1012format_errorCI1St13runtime_errorEPKc, symObjAddr: 0x84, symBinAddr: 0x4BC4, symSize: 0x24 }
  - { offsetInCU: 0x2A696, offset: 0x45135, size: 0x8, addend: 0x0, symName: __ZN3fmt3v1012format_errorD1Ev, symObjAddr: 0xA8, symBinAddr: 0x4BE8, symSize: 0x4 }
  - { offsetInCU: 0x2A6B8, offset: 0x45157, size: 0x8, addend: 0x0, symName: __ZN3fmt3v1012format_errorD1Ev, symObjAddr: 0xA8, symBinAddr: 0x4BE8, symSize: 0x4 }
  - { offsetInCU: 0x2ABCF, offset: 0x4566E, size: 0x8, addend: 0x0, symName: __ZN3fmt3v1012format_facetINSt3__16localeEEC2ERS3_, symObjAddr: 0xF718, symBinAddr: 0x1419C, symSize: 0x140 }
  - { offsetInCU: 0x2B407, offset: 0x45EA6, size: 0x8, addend: 0x0, symName: __ZN3fmt3v1012format_facetINSt3__16localeEED1Ev, symObjAddr: 0x410, symBinAddr: 0x4F44, symSize: 0x60 }
  - { offsetInCU: 0x2B7D6, offset: 0x46275, size: 0x8, addend: 0x0, symName: __ZNK3fmt3v106detail10locale_ref3getINSt3__16localeEEET_v, symObjAddr: 0x3F8, symBinAddr: 0x4F2C, symSize: 0x18 }
  - { offsetInCU: 0x2B8A2, offset: 0x46341, size: 0x8, addend: 0x0, symName: __ZNK3fmt3v1012format_facetINSt3__16localeEE6do_putENS0_8appenderENS0_9loc_valueERKNS0_12format_specsIcEE, symObjAddr: 0x470, symBinAddr: 0x4FA4, symSize: 0x144 }
  - { offsetInCU: 0x2C05D, offset: 0x46AFC, size: 0x8, addend: 0x0, symName: __ZNSt3__112basic_stringIcNS_11char_traitsIcEENS_9allocatorIcEEE25__init_copy_ctor_externalEPKcm, symObjAddr: 0x20FC, symBinAddr: 0x6C08, symSize: 0x7C }
  - { offsetInCU: 0x2C38E, offset: 0x46E2D, size: 0x8, addend: 0x0, symName: __ZN3fmt3v109loc_value5visitINS0_6detail10loc_writerIcEEEEDTclfp_Li0EEEOT_, symObjAddr: 0x5B4, symBinAddr: 0x50E8, symSize: 0x90 }
  - { offsetInCU: 0x2C43E, offset: 0x46EDD, size: 0x8, addend: 0x0, symName: __ZN3fmt3v106detail10loc_writerIcED1Ev, symObjAddr: 0x644, symBinAddr: 0x5178, symSize: 0x50 }
  - { offsetInCU: 0x2C815, offset: 0x472B4, size: 0x8, addend: 0x0, symName: __ZN3fmt3v106detail10loc_writerIcEclIiLi0EEEbT_, symObjAddr: 0xF858, symBinAddr: 0x142DC, symSize: 0x188 }
  - { offsetInCU: 0x2D242, offset: 0x47CE1, size: 0x8, addend: 0x0, symName: __ZN3fmt3v106detail10loc_writerIcEclIjLi0EEEbT_, symObjAddr: 0xF9E0, symBinAddr: 0x14464, symSize: 0x170 }
  - { offsetInCU: 0x2DC73, offset: 0x48712, size: 0x8, addend: 0x0, symName: __ZN3fmt3v106detail10loc_writerIcEclIxLi0EEEbT_, symObjAddr: 0xFB50, symBinAddr: 0x145D4, symSize: 0x188 }
  - { offsetInCU: 0x2E6C0, offset: 0x4915F, size: 0x8, addend: 0x0, symName: __ZN3fmt3v106detail10loc_writerIcEclIyLi0EEEbT_, symObjAddr: 0xFCD8, symBinAddr: 0x1475C, symSize: 0x170 }
  - { offsetInCU: 0x2F102, offset: 0x49BA1, size: 0x8, addend: 0x0, symName: __ZN3fmt3v106detail10loc_writerIcEclInLi0EEEbT_, symObjAddr: 0xFE48, symBinAddr: 0x148CC, symSize: 0x194 }
  - { offsetInCU: 0x2FB57, offset: 0x4A5F6, size: 0x8, addend: 0x0, symName: __ZN3fmt3v106detail10loc_writerIcEclIoLi0EEEbT_, symObjAddr: 0xFFDC, symBinAddr: 0x14A60, symSize: 0x178 }
  - { offsetInCU: 0x306B2, offset: 0x4B151, size: 0x8, addend: 0x0, symName: __ZNSt3__112basic_stringIcNS_11char_traitsIcEENS_9allocatorIcEEEC2B7v160006EPKcm, symObjAddr: 0x10630, symBinAddr: 0x150B4, symSize: 0x94 }
  - { offsetInCU: 0x30C5E, offset: 0x4B6FD, size: 0x8, addend: 0x0, symName: __ZN3fmt3v106detail13utf8_to_utf16C1ENS0_17basic_string_viewIcEE, symObjAddr: 0xA98, symBinAddr: 0x55CC, symSize: 0x4 }
  - { offsetInCU: 0x30CCB, offset: 0x4B76A, size: 0x8, addend: 0x0, symName: __ZN3fmt3v106detail13utf8_to_utf16C1ENS0_17basic_string_viewIcEE, symObjAddr: 0xA98, symBinAddr: 0x55CC, symSize: 0x4 }
  - { offsetInCU: 0x30DD4, offset: 0x4B873, size: 0x8, addend: 0x0, symName: __ZN3fmt3v106detail13utf8_to_utf16C2ENS0_17basic_string_viewIcEE, symObjAddr: 0x94C, symBinAddr: 0x5480, symSize: 0x14C }
  - { offsetInCU: 0x310F7, offset: 0x4BB96, size: 0x8, addend: 0x0, symName: '__ZZN3fmt3v106detail18for_each_codepointIZNS1_13utf8_to_utf16C1ENS0_17basic_string_viewIcEEE3$_2EEvS5_T_ENKUlPKcS9_E_clES9_S9_', symObjAddr: 0x22AC, symBinAddr: 0x6D30, symSize: 0x23C }
  - { offsetInCU: 0x318DC, offset: 0x4C37B, size: 0x8, addend: 0x0, symName: __ZZN3fmt3v106detail10vformat_toIcEEvRNS1_6bufferIT_EENS0_17basic_string_viewIS4_EENS1_12vformat_argsIS4_E4typeENS1_10locale_refEEN14format_handler7on_textEPKcSF_, symObjAddr: 0x7840, symBinAddr: 0xC2C4, symSize: 0x54 }
  - { offsetInCU: 0x319CD, offset: 0x4C46C, size: 0x8, addend: 0x0, symName: __ZN3fmt3v106detail23parse_replacement_fieldIcRZNS1_10vformat_toIcEEvRNS1_6bufferIT_EENS0_17basic_string_viewIS5_EENS1_12vformat_argsIS5_E4typeENS1_10locale_refEE14format_handlerEEPKS5_SH_SH_OT0_, symObjAddr: 0x7894, symBinAddr: 0xC318, symSize: 0x3DC }
  - { offsetInCU: 0x319E0, offset: 0x4C47F, size: 0x8, addend: 0x0, symName: __ZZN3fmt3v106detail19parse_format_stringILb0EcZNS1_10vformat_toIcEEvRNS1_6bufferIT_EENS0_17basic_string_viewIS5_EENS1_12vformat_argsIS5_E4typeENS1_10locale_refEE14format_handlerEEvNS8_IT0_EEOT1_EN6writerclEPKcSL_, symObjAddr: 0x7C70, symBinAddr: 0xC6F4, symSize: 0xC0 }
  - { offsetInCU: 0x31B19, offset: 0x4C5B8, size: 0x8, addend: 0x0, symName: __ZZN3fmt3v106detail10vformat_toIcEEvRNS1_6bufferIT_EENS0_17basic_string_viewIS4_EENS1_12vformat_argsIS4_E4typeENS1_10locale_refEEN14format_handler15on_format_specsEiPKcSF_, symObjAddr: 0x7D30, symBinAddr: 0xC7B4, symSize: 0x93C }
  - { offsetInCU: 0x31B24, offset: 0x4C5C3, size: 0x8, addend: 0x0, symName: __ZN3fmt3v106detail21default_arg_formatterIcEclIbEENS0_8appenderET_, symObjAddr: 0x2588, symBinAddr: 0x700C, symSize: 0x48 }
  - { offsetInCU: 0x31BD8, offset: 0x4C677, size: 0x8, addend: 0x0, symName: __ZN3fmt3v106detail21default_arg_formatterIcEclIPKvEENS0_8appenderET_, symObjAddr: 0x25D0, symBinAddr: 0x7054, symSize: 0x44 }
  - { offsetInCU: 0x31D99, offset: 0x4C838, size: 0x8, addend: 0x0, symName: __ZN3fmt3v106detail9dragonbox14cache_accessorIfE18compute_mul_parityEjRKyi, symObjAddr: 0x15C8, symBinAddr: 0x60FC, symSize: 0x80 }
  - { offsetInCU: 0x31E2E, offset: 0x4C8CD, size: 0x8, addend: 0x0, symName: __ZN3fmt3v106detail9dragonbox10to_decimalIdEENS2_10decimal_fpIT_EES5_, symObjAddr: 0x1648, symBinAddr: 0x617C, symSize: 0x45C }
  - { offsetInCU: 0x31F02, offset: 0x4C9A1, size: 0x8, addend: 0x0, symName: __ZN3fmt3v106detail9dragonbox14cache_accessorIdE18compute_mul_parityEyRKNS1_16uint128_fallbackEi, symObjAddr: 0x1AA4, symBinAddr: 0x65D8, symSize: 0x84 }
  - { offsetInCU: 0x31FD0, offset: 0x4CA6F, size: 0x8, addend: 0x0, symName: __ZN3fmt3v106detail10locale_refC2INSt3__16localeEEERKT_, symObjAddr: 0x1B28, symBinAddr: 0x665C, symSize: 0x8 }
  - { offsetInCU: 0x31FE3, offset: 0x4CA82, size: 0x8, addend: 0x0, symName: __ZN3fmt3v106detail10locale_refC2INSt3__16localeEEERKT_, symObjAddr: 0x1B28, symBinAddr: 0x665C, symSize: 0x8 }
  - { offsetInCU: 0x3203D, offset: 0x4CADC, size: 0x8, addend: 0x0, symName: __ZN3fmt3v106detail10locale_refC1INSt3__16localeEEERKT_, symObjAddr: 0x1B30, symBinAddr: 0x6664, symSize: 0x8 }
  - { offsetInCU: 0x32076, offset: 0x4CB15, size: 0x8, addend: 0x0, symName: __ZN3fmt3v106detail10locale_refC1INSt3__16localeEEERKT_, symObjAddr: 0x1B30, symBinAddr: 0x6664, symSize: 0x8 }
  - { offsetInCU: 0x32173, offset: 0x4CC12, size: 0x8, addend: 0x0, symName: __ZN3fmt3v106detail6bufferIcE6appendIcEEvPKT_S7_, symObjAddr: 0x1C94, symBinAddr: 0x67C8, symSize: 0xC0 }
  - { offsetInCU: 0x3228F, offset: 0x4CD2E, size: 0x8, addend: 0x0, symName: __ZNK3fmt3v1017basic_format_argsINS0_20basic_format_contextINS0_8appenderEcEEE3getEi, symObjAddr: 0x1D54, symBinAddr: 0x6888, symSize: 0x60 }
  - { offsetInCU: 0x322FA, offset: 0x4CD99, size: 0x8, addend: 0x0, symName: __ZNK3fmt3v1017basic_format_argsINS0_20basic_format_contextINS0_8appenderEcEEE3getEi, symObjAddr: 0x1D54, symBinAddr: 0x6888, symSize: 0x60 }
  - { offsetInCU: 0x3232C, offset: 0x4CDCB, size: 0x8, addend: 0x0, symName: __ZNK3fmt3v1017basic_format_argsINS0_20basic_format_contextINS0_8appenderEcEEE3getEi, symObjAddr: 0x1D54, symBinAddr: 0x6888, symSize: 0x60 }
  - { offsetInCU: 0x32349, offset: 0x4CDE8, size: 0x8, addend: 0x0, symName: __ZNK3fmt3v1017basic_format_argsINS0_20basic_format_contextINS0_8appenderEcEEE3getEi, symObjAddr: 0x1D54, symBinAddr: 0x6888, symSize: 0x60 }
  - { offsetInCU: 0x32431, offset: 0x4CED0, size: 0x8, addend: 0x0, symName: __ZN3fmt3v106detail6bufferIwE6appendIwEEvPKT_S7_, symObjAddr: 0x1F10, symBinAddr: 0x6A44, symSize: 0xC4 }
  - { offsetInCU: 0x32543, offset: 0x4CFE2, size: 0x8, addend: 0x0, symName: __ZN3fmt3v1012format_errorD0Ev, symObjAddr: 0x1FD4, symBinAddr: 0x6B08, symSize: 0x14 }
  - { offsetInCU: 0x3257C, offset: 0x4D01B, size: 0x8, addend: 0x0, symName: __ZN3fmt3v1012format_errorD0Ev, symObjAddr: 0x1FD4, symBinAddr: 0x6B08, symSize: 0x14 }
  - { offsetInCU: 0x32682, offset: 0x4D121, size: 0x8, addend: 0x0, symName: __ZN3fmt3v1019basic_memory_bufferIcLm500ENSt3__19allocatorIcEEE4growEm, symObjAddr: 0x1FE8, symBinAddr: 0x6B1C, symSize: 0x88 }
  - { offsetInCU: 0x3290F, offset: 0x4D3AE, size: 0x8, addend: 0x0, symName: __ZN3fmt3v1012format_facetINSt3__16localeEED0Ev, symObjAddr: 0x2098, symBinAddr: 0x6BA4, symSize: 0x64 }
  - { offsetInCU: 0x32F4E, offset: 0x4D9ED, size: 0x8, addend: 0x0, symName: __ZN3fmt3v1019basic_memory_bufferIwLm500ENSt3__19allocatorIwEEE4growEm, symObjAddr: 0x2200, symBinAddr: 0x6C84, symSize: 0xAC }
  - { offsetInCU: 0x331B6, offset: 0x4DC55, size: 0x8, addend: 0x0, symName: '__ZZN3fmt3v106detail18for_each_codepointIZNS1_13utf8_to_utf16C1ENS0_17basic_string_viewIcEEE3$_2EEvS5_T_ENKUlPKcS9_E_clES9_S9_', symObjAddr: 0x22AC, symBinAddr: 0x6D30, symSize: 0x23C }
  - { offsetInCU: 0x334BB, offset: 0x4DF5A, size: 0x8, addend: 0x0, symName: __ZN3fmt3v106detail14write_int_dataIcEC2EijRKNS0_12format_specsIcEE, symObjAddr: 0x38F4, symBinAddr: 0x8378, symSize: 0x8C }
  - { offsetInCU: 0x3359F, offset: 0x4E03E, size: 0x8, addend: 0x0, symName: __ZN3fmt3v106detail12write_paddedILNS0_5align4typeE2ENS0_8appenderEcRZNS1_9write_intIS5_cZNS1_9write_intIcS5_jEET0_S8_NS1_13write_int_argIT1_EERKNS0_12format_specsIT_EENS1_10locale_refEEUlS5_E_EESD_SD_ijRKNSC_IS8_EESA_EUlS5_E_EES8_S8_RKNSC_ISA_EEmmOT2_, symObjAddr: 0x3980, symBinAddr: 0x8404, symSize: 0x160 }
  - { offsetInCU: 0x3361C, offset: 0x4E0BB, size: 0x8, addend: 0x0, symName: __ZZN3fmt3v106detail9write_intINS0_8appenderEcZNS1_9write_intIcS3_jEET0_S5_NS1_13write_int_argIT1_EERKNS0_12format_specsIT_EENS1_10locale_refEEUlS3_E0_EESA_SA_ijRKNS9_IS5_EES7_ENKUlS3_E_clES3_, symObjAddr: 0x3C7C, symBinAddr: 0x8700, symSize: 0x1AC }
  - { offsetInCU: 0x338B2, offset: 0x4E351, size: 0x8, addend: 0x0, symName: __ZZN3fmt3v106detail9write_intINS0_8appenderEcZNS1_9write_intIcS3_jEET0_S5_NS1_13write_int_argIT1_EERKNS0_12format_specsIT_EENS1_10locale_refEEUlS3_E1_EESA_SA_ijRKNS9_IS5_EES7_ENKUlS3_E_clES3_, symObjAddr: 0x3ED8, symBinAddr: 0x895C, symSize: 0x17C }
  - { offsetInCU: 0x33B51, offset: 0x4E5F0, size: 0x8, addend: 0x0, symName: __ZZN3fmt3v106detail9write_intINS0_8appenderEcZNS1_9write_intIcS3_jEET0_S5_NS1_13write_int_argIT1_EERKNS0_12format_specsIT_EENS1_10locale_refEEUlS3_E2_EESA_SA_ijRKNS9_IS5_EES7_ENKUlS3_E_clES3_, symObjAddr: 0x4104, symBinAddr: 0x8B88, symSize: 0x178 }
  - { offsetInCU: 0x33FBD, offset: 0x4EA5C, size: 0x8, addend: 0x0, symName: __ZN3fmt3v106detail14digit_groupingIcEC2ENS1_10locale_refEb, symObjAddr: 0x56B4, symBinAddr: 0xA138, symSize: 0x124 }
  - { offsetInCU: 0x34766, offset: 0x4F205, size: 0x8, addend: 0x0, symName: __ZNK3fmt3v106detail14digit_groupingIcE16count_separatorsEi, symObjAddr: 0x52F8, symBinAddr: 0x9D7C, symSize: 0x64 }
  - { offsetInCU: 0x34879, offset: 0x4F318, size: 0x8, addend: 0x0, symName: __ZZN3fmt3v106detail14do_write_floatINS0_8appenderENS1_9dragonbox10decimal_fpIfEEcNS1_14digit_groupingIcEEEET_S9_RKT0_RKNS0_12format_specsIT1_EENS1_11float_specsENS1_10locale_refEENKUlS3_E_clES3_, symObjAddr: 0x5118, symBinAddr: 0x9B9C, symSize: 0x1E0 }
  - { offsetInCU: 0x34AB5, offset: 0x4F554, size: 0x8, addend: 0x0, symName: __ZN3fmt3v106detail14digit_groupingIcED1Ev, symObjAddr: 0x535C, symBinAddr: 0x9DE0, symSize: 0x40 }
  - { offsetInCU: 0x34D8A, offset: 0x4F829, size: 0x8, addend: 0x0, symName: __ZNK3fmt3v106detail14digit_groupingIcE4nextERNS3_10next_stateE, symObjAddr: 0x57D8, symBinAddr: 0xA25C, symSize: 0x94 }
  - { offsetInCU: 0x34DF0, offset: 0x4F88F, size: 0x8, addend: 0x0, symName: __ZNK3fmt3v106detail14digit_groupingIcE4nextERNS3_10next_stateE, symObjAddr: 0x57D8, symBinAddr: 0xA25C, symSize: 0x94 }
  - { offsetInCU: 0x350BB, offset: 0x4FB5A, size: 0x8, addend: 0x0, symName: __ZZN3fmt3v106detail14do_write_floatINS0_8appenderENS1_9dragonbox10decimal_fpIfEEcNS1_14digit_groupingIcEEEET_S9_RKT0_RKNS0_12format_specsIT1_EENS1_11float_specsENS1_10locale_refEENKUlS3_E0_clES3_, symObjAddr: 0x591C, symBinAddr: 0xA3A0, symSize: 0x108 }
  - { offsetInCU: 0x3522E, offset: 0x4FCCD, size: 0x8, addend: 0x0, symName: __ZNK3fmt3v106detail14digit_groupingIcE5applyINS0_8appenderEcEET_S6_NS0_17basic_string_viewIT0_EE, symObjAddr: 0x5B7C, symBinAddr: 0xA600, symSize: 0x1AC }
  - { offsetInCU: 0x35A8F, offset: 0x5052E, size: 0x8, addend: 0x0, symName: __ZN3fmt3v1019basic_memory_bufferIiLm500ENSt3__19allocatorIiEEE4growEm, symObjAddr: 0x5D28, symBinAddr: 0xA7AC, symSize: 0xAC }
  - { offsetInCU: 0x35CF7, offset: 0x50796, size: 0x8, addend: 0x0, symName: __ZN3fmt3v106detail12write_paddedILNS0_5align4typeE2ENS0_8appenderEcRZNS1_14do_write_floatIS5_NS1_9dragonbox10decimal_fpIfEEcNS1_14digit_groupingIcEEEET_SC_RKT0_RKNS0_12format_specsIT1_EENS1_11float_specsENS1_10locale_refEEUlS5_E1_EESD_SD_SK_mmOT2_, symObjAddr: 0x5DD4, symBinAddr: 0xA858, symSize: 0x138 }
  - { offsetInCU: 0x35D57, offset: 0x507F6, size: 0x8, addend: 0x0, symName: __ZZN3fmt3v106detail14do_write_floatINS0_8appenderENS1_9dragonbox10decimal_fpIfEEcNS1_14digit_groupingIcEEEET_S9_RKT0_RKNS0_12format_specsIT1_EENS1_11float_specsENS1_10locale_refEENKUlS3_E2_clES3_, symObjAddr: 0x627C, symBinAddr: 0xAD00, symSize: 0x174 }
  - { offsetInCU: 0x36046, offset: 0x50AE5, size: 0x8, addend: 0x0, symName: __ZZN3fmt3v106detail14do_write_floatINS0_8appenderENS1_9dragonbox10decimal_fpIdEEcNS1_14digit_groupingIcEEEET_S9_RKT0_RKNS0_12format_specsIT1_EENS1_11float_specsENS1_10locale_refEENKUlS3_E_clES3_, symObjAddr: 0x68A8, symBinAddr: 0xB32C, symSize: 0x1EC }
  - { offsetInCU: 0x36298, offset: 0x50D37, size: 0x8, addend: 0x0, symName: __ZZN3fmt3v106detail14do_write_floatINS0_8appenderENS1_9dragonbox10decimal_fpIdEEcNS1_14digit_groupingIcEEEET_S9_RKT0_RKNS0_12format_specsIT1_EENS1_11float_specsENS1_10locale_refEENKUlS3_E0_clES3_, symObjAddr: 0x6BF4, symBinAddr: 0xB678, symSize: 0x108 }
  - { offsetInCU: 0x36434, offset: 0x50ED3, size: 0x8, addend: 0x0, symName: __ZZN3fmt3v106detail14do_write_floatINS0_8appenderENS1_9dragonbox10decimal_fpIdEEcNS1_14digit_groupingIcEEEET_S9_RKT0_RKNS0_12format_specsIT1_EENS1_11float_specsENS1_10locale_refEENKUlS3_E2_clES3_, symObjAddr: 0x7314, symBinAddr: 0xBD98, symSize: 0x174 }
  - { offsetInCU: 0x3670E, offset: 0x511AD, size: 0x8, addend: 0x0, symName: __ZZN3fmt3v106detail9write_ptrIcNS0_8appenderEmEET0_S4_T1_PKNS0_12format_specsIT_EEENKUlS3_E_clES3_, symObjAddr: 0x7608, symBinAddr: 0xC08C, symSize: 0x188 }
  - { offsetInCU: 0x36B55, offset: 0x515F4, size: 0x8, addend: 0x0, symName: __ZZN3fmt3v106detail10vformat_toIcEEvRNS1_6bufferIT_EENS0_17basic_string_viewIS4_EENS1_12vformat_argsIS4_E4typeENS1_10locale_refEEN14format_handler15on_format_specsEiPKcSF_, symObjAddr: 0x7D30, symBinAddr: 0xC7B4, symSize: 0x93C }
  - { offsetInCU: 0x380AB, offset: 0x52B4A, size: 0x8, addend: 0x0, symName: __ZN3fmt3v106detail7get_argINS0_20basic_format_contextINS0_8appenderEcEEiEEDTcldtfp_3argfp0_EERT_T0_, symObjAddr: 0x866C, symBinAddr: 0xD0F0, symSize: 0x38 }
  - { offsetInCU: 0x38795, offset: 0x53234, size: 0x8, addend: 0x0, symName: __ZN3fmt3v106detail6fill_tIcEaSENS0_17basic_string_viewIcEE, symObjAddr: 0x8C84, symBinAddr: 0xD708, symSize: 0x50 }
  - { offsetInCU: 0x38800, offset: 0x5329F, size: 0x8, addend: 0x0, symName: __ZN3fmt3v106detail15do_parse_arg_idIcRNS1_23dynamic_spec_id_handlerIcEEEEPKT_S8_S8_OT0_, symObjAddr: 0x8CD4, symBinAddr: 0xD758, symSize: 0x14C }
  - { offsetInCU: 0x388E0, offset: 0x5337F, size: 0x8, addend: 0x0, symName: __ZZN3fmt3v106detail23parse_replacement_fieldIcRZNS1_10vformat_toIcEEvRNS1_6bufferIT_EENS0_17basic_string_viewIS5_EENS1_12vformat_argsIS5_E4typeENS1_10locale_refEE14format_handlerEEPKS5_SH_SH_OT0_EN10id_adapter7on_nameENS8_IcEE, symObjAddr: 0x88A8, symBinAddr: 0xD32C, symSize: 0x3C }
  - { offsetInCU: 0x38997, offset: 0x53436, size: 0x8, addend: 0x0, symName: __ZNK3fmt3v1017basic_format_argsINS0_20basic_format_contextINS0_8appenderEcEEE6get_idIcEEiNS0_17basic_string_viewIT_EE, symObjAddr: 0x88E4, symBinAddr: 0xD368, symSize: 0xC8 }
  - { offsetInCU: 0x389F7, offset: 0x53496, size: 0x8, addend: 0x0, symName: __ZNK3fmt3v1017basic_format_argsINS0_20basic_format_contextINS0_8appenderEcEEE6get_idIcEEiNS0_17basic_string_viewIT_EE, symObjAddr: 0x88E4, symBinAddr: 0xD368, symSize: 0xC8 }
  - { offsetInCU: 0x38B0B, offset: 0x535AA, size: 0x8, addend: 0x0, symName: __ZNK3fmt3v1017basic_string_viewIcE7compareES2_, symObjAddr: 0x89AC, symBinAddr: 0xD430, symSize: 0x48 }
  - { offsetInCU: 0x38D02, offset: 0x537A1, size: 0x8, addend: 0x0, symName: __ZNK3fmt3v1017basic_format_argsINS0_20basic_format_contextINS0_8appenderEcEEE3getIcEENS0_16basic_format_argIS4_EENS0_17basic_string_viewIT_EE, symObjAddr: 0x8EE8, symBinAddr: 0xD96C, symSize: 0x44 }
  - { offsetInCU: 0x3907B, offset: 0x53B1A, size: 0x8, addend: 0x0, symName: __ZZN3fmt3v106detail9write_intINS0_8appenderEcZNS1_9write_intIcS3_yEET0_S5_NS1_13write_int_argIT1_EERKNS0_12format_specsIT_EENS1_10locale_refEEUlS3_E0_EESA_SA_ijRKNS9_IS5_EES7_ENKUlS3_E_clES3_, symObjAddr: 0x984C, symBinAddr: 0xE2D0, symSize: 0x1AC }
  - { offsetInCU: 0x39311, offset: 0x53DB0, size: 0x8, addend: 0x0, symName: __ZZN3fmt3v106detail9write_intINS0_8appenderEcZNS1_9write_intIcS3_yEET0_S5_NS1_13write_int_argIT1_EERKNS0_12format_specsIT_EENS1_10locale_refEEUlS3_E1_EESA_SA_ijRKNS9_IS5_EES7_ENKUlS3_E_clES3_, symObjAddr: 0x9AA8, symBinAddr: 0xE52C, symSize: 0x180 }
  - { offsetInCU: 0x395B0, offset: 0x5404F, size: 0x8, addend: 0x0, symName: __ZZN3fmt3v106detail9write_intINS0_8appenderEcZNS1_9write_intIcS3_yEET0_S5_NS1_13write_int_argIT1_EERKNS0_12format_specsIT_EENS1_10locale_refEEUlS3_E2_EESA_SA_ijRKNS9_IS5_EES7_ENKUlS3_E_clES3_, symObjAddr: 0x9CD8, symBinAddr: 0xE75C, symSize: 0x178 }
  - { offsetInCU: 0x39A5A, offset: 0x544F9, size: 0x8, addend: 0x0, symName: __ZZN3fmt3v106detail9write_intINS0_8appenderEcZNS1_9write_intIcS3_oEET0_S5_NS1_13write_int_argIT1_EERKNS0_12format_specsIT_EENS1_10locale_refEEUlS3_E0_EESA_SA_ijRKNS9_IS5_EES7_ENKUlS3_E_clES3_, symObjAddr: 0xA83C, symBinAddr: 0xF2C0, symSize: 0x1CC }
  - { offsetInCU: 0x39CF0, offset: 0x5478F, size: 0x8, addend: 0x0, symName: __ZZN3fmt3v106detail9write_intINS0_8appenderEcZNS1_9write_intIcS3_oEET0_S5_NS1_13write_int_argIT1_EERKNS0_12format_specsIT_EENS1_10locale_refEEUlS3_E1_EESA_SA_ijRKNS9_IS5_EES7_ENKUlS3_E_clES3_, symObjAddr: 0xAAB8, symBinAddr: 0xF53C, symSize: 0x1A4 }
  - { offsetInCU: 0x39F87, offset: 0x54A26, size: 0x8, addend: 0x0, symName: __ZZN3fmt3v106detail9write_intINS0_8appenderEcZNS1_9write_intIcS3_oEET0_S5_NS1_13write_int_argIT1_EERKNS0_12format_specsIT_EENS1_10locale_refEEUlS3_E2_EESA_SA_ijRKNS9_IS5_EES7_ENKUlS3_E_clES3_, symObjAddr: 0xAD0C, symBinAddr: 0xF790, symSize: 0x198 }
  - { offsetInCU: 0x3A861, offset: 0x55300, size: 0x8, addend: 0x0, symName: __ZN3fmt3v106detail6bigintaSIoEEvT_, symObjAddr: 0xC79C, symBinAddr: 0x11220, symSize: 0x2C }
  - { offsetInCU: 0x3A8A8, offset: 0x55347, size: 0x8, addend: 0x0, symName: __ZN3fmt3v106detail6bigintlSEi, symObjAddr: 0xC7C8, symBinAddr: 0x1124C, symSize: 0xC4 }
  - { offsetInCU: 0x3A8C4, offset: 0x55363, size: 0x8, addend: 0x0, symName: __ZN3fmt3v106detail6bigintlSEi, symObjAddr: 0xC7C8, symBinAddr: 0x1124C, symSize: 0xC4 }
  - { offsetInCU: 0x3A9D3, offset: 0x55472, size: 0x8, addend: 0x0, symName: __ZN3fmt3v106detail6bigint12assign_pow10Ei, symObjAddr: 0xC88C, symBinAddr: 0x11310, symSize: 0xC0 }
  - { offsetInCU: 0x3A9E6, offset: 0x55485, size: 0x8, addend: 0x0, symName: __ZN3fmt3v106detail6bigint6assignIyLi0EEEvT_, symObjAddr: 0xCE14, symBinAddr: 0x11898, symSize: 0x6C }
  - { offsetInCU: 0x3AAC5, offset: 0x55564, size: 0x8, addend: 0x0, symName: __ZN3fmt3v106detail6bigint12assign_pow10Ei, symObjAddr: 0xC88C, symBinAddr: 0x11310, symSize: 0xC0 }
  - { offsetInCU: 0x3ABF9, offset: 0x55698, size: 0x8, addend: 0x0, symName: __ZN3fmt3v106detail6bigint6assignERKS2_, symObjAddr: 0xC94C, symBinAddr: 0x113D0, symSize: 0x8C }
  - { offsetInCU: 0x3AC0C, offset: 0x556AB, size: 0x8, addend: 0x0, symName: __ZN3fmt3v106detail6bigint8multiplyEj, symObjAddr: 0xD298, symBinAddr: 0x11D1C, symSize: 0x88 }
  - { offsetInCU: 0x3AD2A, offset: 0x557C9, size: 0x8, addend: 0x0, symName: __ZN3fmt3v106detail6bigint13divmod_assignERKS2_, symObjAddr: 0xCB6C, symBinAddr: 0x115F0, symSize: 0xB4 }
  - { offsetInCU: 0x3AE21, offset: 0x558C0, size: 0x8, addend: 0x0, symName: __ZN3fmt3v106detail7compareERKNS1_6bigintES4_, symObjAddr: 0xCC20, symBinAddr: 0x116A4, symSize: 0xD4 }
  - { offsetInCU: 0x3AE34, offset: 0x558D3, size: 0x8, addend: 0x0, symName: __ZN3fmt3v106detail6bigint6assignERKS2_, symObjAddr: 0xC94C, symBinAddr: 0x113D0, symSize: 0x8C }
  - { offsetInCU: 0x3AF92, offset: 0x55A31, size: 0x8, addend: 0x0, symName: __ZN3fmt3v106detail6bigintmLIoEERS2_T_, symObjAddr: 0xC9D8, symBinAddr: 0x1145C, symSize: 0x44 }
  - { offsetInCU: 0x3AFD9, offset: 0x55A78, size: 0x8, addend: 0x0, symName: __ZN3fmt3v106detail11add_compareERKNS1_6bigintES4_S4_, symObjAddr: 0xCA1C, symBinAddr: 0x114A0, symSize: 0x150 }
  - { offsetInCU: 0x3AFF5, offset: 0x55A94, size: 0x8, addend: 0x0, symName: __ZN3fmt3v106detail6bigint6assignIoLi0EEEvT_, symObjAddr: 0xCDA0, symBinAddr: 0x11824, symSize: 0x74 }
  - { offsetInCU: 0x3B133, offset: 0x55BD2, size: 0x8, addend: 0x0, symName: __ZN3fmt3v106detail6bigint6squareEv, symObjAddr: 0xCE80, symBinAddr: 0x11904, symSize: 0x1C8 }
  - { offsetInCU: 0x3B6D7, offset: 0x56176, size: 0x8, addend: 0x0, symName: __ZN3fmt3v106detail6bigint5alignERKS2_, symObjAddr: 0xD320, symBinAddr: 0x11DA4, symSize: 0xF0 }
  - { offsetInCU: 0x3B888, offset: 0x56327, size: 0x8, addend: 0x0, symName: __ZN3fmt3v106detail6bigint16subtract_alignedERKS2_, symObjAddr: 0xD410, symBinAddr: 0x11E94, symSize: 0xFC }
  - { offsetInCU: 0x3B89B, offset: 0x5633A, size: 0x8, addend: 0x0, symName: __ZN3fmt3v106detail6bigint16subtract_alignedERKS2_, symObjAddr: 0xD410, symBinAddr: 0x11E94, symSize: 0xFC }
  - { offsetInCU: 0x3BA69, offset: 0x56508, size: 0x8, addend: 0x0, symName: __ZN3fmt3v106detail14do_write_floatINS0_8appenderENS1_14big_decimal_fpEcNS1_14digit_groupingIcEEEET_S7_RKT0_RKNS0_12format_specsIT1_EENS1_11float_specsENS1_10locale_refE, symObjAddr: 0xD50C, symBinAddr: 0x11F90, symSize: 0x4C0 }
  - { offsetInCU: 0x3BB1F, offset: 0x565BE, size: 0x8, addend: 0x0, symName: __ZN3fmt3v1019basic_memory_bufferIjLm32ENSt3__19allocatorIjEEE4growEm, symObjAddr: 0xCCF4, symBinAddr: 0x11778, symSize: 0xAC }
  - { offsetInCU: 0x3BD87, offset: 0x56826, size: 0x8, addend: 0x0, symName: __ZN3fmt3v106detail6bigint6assignIoLi0EEEvT_, symObjAddr: 0xCDA0, symBinAddr: 0x11824, symSize: 0x74 }
  - { offsetInCU: 0x3BDB8, offset: 0x56857, size: 0x8, addend: 0x0, symName: __ZN3fmt3v1019basic_memory_bufferIjLm32ENSt3__19allocatorIjEEEC2EOS5_, symObjAddr: 0xD0D8, symBinAddr: 0x11B5C, symSize: 0x3C }
  - { offsetInCU: 0x3BE3B, offset: 0x568DA, size: 0x8, addend: 0x0, symName: __ZN3fmt3v106detail6bigint20remove_leading_zerosEv, symObjAddr: 0xD048, symBinAddr: 0x11ACC, symSize: 0x90 }
  - { offsetInCU: 0x3BF9B, offset: 0x56A3A, size: 0x8, addend: 0x0, symName: __ZN3fmt3v1019basic_memory_bufferIjLm32ENSt3__19allocatorIjEEEC2EOS5_, symObjAddr: 0xD0D8, symBinAddr: 0x11B5C, symSize: 0x3C }
  - { offsetInCU: 0x3BFFB, offset: 0x56A9A, size: 0x8, addend: 0x0, symName: __ZN3fmt3v1019basic_memory_bufferIjLm32ENSt3__19allocatorIjEEE4moveERS5_, symObjAddr: 0xD114, symBinAddr: 0x11B98, symSize: 0xA0 }
  - { offsetInCU: 0x3C2F0, offset: 0x56D8F, size: 0x8, addend: 0x0, symName: __ZZN3fmt3v106detail14do_write_floatINS0_8appenderENS1_14big_decimal_fpEcNS1_14digit_groupingIcEEEET_S7_RKT0_RKNS0_12format_specsIT1_EENS1_11float_specsENS1_10locale_refEENKUlS3_E0_clES3_, symObjAddr: 0xDC98, symBinAddr: 0x1271C, symSize: 0x108 }
  - { offsetInCU: 0x3C48C, offset: 0x56F2B, size: 0x8, addend: 0x0, symName: __ZZN3fmt3v106detail14do_write_floatINS0_8appenderENS1_14big_decimal_fpEcNS1_14digit_groupingIcEEEET_S7_RKT0_RKNS0_12format_specsIT1_EENS1_11float_specsENS1_10locale_refEENKUlS3_E2_clES3_, symObjAddr: 0xE228, symBinAddr: 0x12CAC, symSize: 0x128 }
  - { offsetInCU: 0x3C891, offset: 0x57330, size: 0x8, addend: 0x0, symName: __ZZN3fmt3v106detail18for_each_codepointIZNS1_11find_escapeEPKcS4_EUljNS0_17basic_string_viewIcEEE_EEvS6_T_ENKUlS4_S4_E_clES4_S4_, symObjAddr: 0xEFD8, symBinAddr: 0x13A5C, symSize: 0x190 }
  - { offsetInCU: 0x3C9D0, offset: 0x5746F, size: 0x8, addend: 0x0, symName: __ZN3fmt3v106detail18for_each_codepointIZNS1_13compute_widthENS0_17basic_string_viewIcEEE17count_code_pointsEEvS4_T_, symObjAddr: 0xF168, symBinAddr: 0x13BEC, symSize: 0xE4 }
  - { offsetInCU: 0x3CA2E, offset: 0x574CD, size: 0x8, addend: 0x0, symName: __ZZN3fmt3v106detail18for_each_codepointIZNS1_13compute_widthENS0_17basic_string_viewIcEEE17count_code_pointsEEvS4_T_ENKUlPKcS8_E_clES8_S8_, symObjAddr: 0xF24C, symBinAddr: 0x13CD0, symSize: 0x130 }
  - { offsetInCU: 0x3CB08, offset: 0x575A7, size: 0x8, addend: 0x0, symName: __ZZN3fmt3v106detail13compute_widthENS0_17basic_string_viewIcEEENK17count_code_pointsclEjS3_, symObjAddr: 0xF37C, symBinAddr: 0x13E00, symSize: 0xD4 }
  - { offsetInCU: 0x3CB1B, offset: 0x575BA, size: 0x8, addend: 0x0, symName: __ZZN3fmt3v106detail13compute_widthENS0_17basic_string_viewIcEEENK17count_code_pointsclEjS3_, symObjAddr: 0xF37C, symBinAddr: 0x13E00, symSize: 0xD4 }
  - { offsetInCU: 0x3CC34, offset: 0x576D3, size: 0x8, addend: 0x0, symName: __ZN3fmt3v106detail15iterator_bufferINS0_8appenderEcNS1_13buffer_traitsEED2Ev, symObjAddr: 0xF6D8, symBinAddr: 0x1415C, symSize: 0x40 }
  - { offsetInCU: 0x3CCD0, offset: 0x5776F, size: 0x8, addend: 0x0, symName: __ZN3fmt3v106detail15iterator_bufferINS0_8appenderEcNS1_13buffer_traitsEE4growEm, symObjAddr: 0xF620, symBinAddr: 0x140A4, symSize: 0x40 }
  - { offsetInCU: 0xDF62, offset: 0x65C24, size: 0x8, addend: 0x0, symName: __ZNSt3__124__put_character_sequenceB7v160006IcNS_11char_traitsIcEEEERNS_13basic_ostreamIT_T0_EES7_PKS4_m, symObjAddr: 0x1428, symBinAddr: 0x164F0, symSize: 0x164 }
  - { offsetInCU: 0x1046C, offset: 0x6812E, size: 0x8, addend: 0x0, symName: __ZNSt3__116__throw_bad_castB7v160006Ev, symObjAddr: 0x1114, symBinAddr: 0x161DC, symSize: 0x28 }
  - { offsetInCU: 0x1096C, offset: 0x6862E, size: 0x8, addend: 0x0, symName: __ZNSt3__116__pad_and_outputB7v160006IcNS_11char_traitsIcEEEENS_19ostreambuf_iteratorIT_T0_EES6_PKS4_S8_S8_RNS_8ios_baseES4_, symObjAddr: 0x158C, symBinAddr: 0x16654, symSize: 0x13C }
  - { offsetInCU: 0x13B75, offset: 0x6B837, size: 0x8, addend: 0x0, symName: __ZN5agora3rtc9extension10ReadBinaryERKNSt3__112basic_stringIcNS2_11char_traitsIcEENS2_9allocatorIcEEEERNS2_6vectorIcS7_EE, symObjAddr: 0x0, symBinAddr: 0x15148, symSize: 0x1AC }
  - { offsetInCU: 0x13ED8, offset: 0x6BB9A, size: 0x8, addend: 0x0, symName: __ZNSt3__114basic_ifstreamIcNS_11char_traitsIcEEEC1ERKNS_12basic_stringIcS2_NS_9allocatorIcEEEEj, symObjAddr: 0x1AC, symBinAddr: 0x152F4, symSize: 0x108 }
  - { offsetInCU: 0x140D1, offset: 0x6BD93, size: 0x8, addend: 0x0, symName: __ZNSt3__16vectorIcNS_9allocatorIcEEE8__appendEm, symObjAddr: 0x314, symBinAddr: 0x1545C, symSize: 0x128 }
  - { offsetInCU: 0x14615, offset: 0x6C2D7, size: 0x8, addend: 0x0, symName: __ZNKSt3__16vectorIcNS_9allocatorIcEEE20__throw_length_errorB7v160006Ev, symObjAddr: 0x43C, symBinAddr: 0x15584, symSize: 0x14 }
  - { offsetInCU: 0x14627, offset: 0x6C2E9, size: 0x8, addend: 0x0, symName: __ZNSt3__113basic_filebufIcNS_11char_traitsIcEEE5closeEv, symObjAddr: 0x668, symBinAddr: 0x15730, symSize: 0x84 }
  - { offsetInCU: 0x1471C, offset: 0x6C3DE, size: 0x8, addend: 0x0, symName: __ZNSt3__113basic_filebufIcNS_11char_traitsIcEEED2Ev, symObjAddr: 0x5FC, symBinAddr: 0x156C4, symSize: 0x6C }
  - { offsetInCU: 0x1475E, offset: 0x6C420, size: 0x8, addend: 0x0, symName: __ZNSt3__114basic_ifstreamIcNS_11char_traitsIcEEED1Ev, symObjAddr: 0x2B4, symBinAddr: 0x153FC, symSize: 0x60 }
  - { offsetInCU: 0x14886, offset: 0x6C548, size: 0x8, addend: 0x0, symName: __ZNSt3__113basic_filebufIcNS_11char_traitsIcEEEC2Ev, symObjAddr: 0x11A4, symBinAddr: 0x1626C, symSize: 0x12C }
  - { offsetInCU: 0x14966, offset: 0x6C628, size: 0x8, addend: 0x0, symName: __ZNSt3__113basic_filebufIcNS_11char_traitsIcEEE4openEPKcj, symObjAddr: 0x12D0, symBinAddr: 0x16398, symSize: 0x158 }
  - { offsetInCU: 0x14E36, offset: 0x6CAF8, size: 0x8, addend: 0x0, symName: __ZNKSt3__16vectorIcNS_9allocatorIcEEE20__throw_length_errorB7v160006Ev, symObjAddr: 0x43C, symBinAddr: 0x15584, symSize: 0x14 }
  - { offsetInCU: 0x14ECE, offset: 0x6CB90, size: 0x8, addend: 0x0, symName: __ZTv0_n24_NSt3__114basic_ifstreamIcNS_11char_traitsIcEEED1Ev, symObjAddr: 0x4D0, symBinAddr: 0x15598, symSize: 0x60 }
  - { offsetInCU: 0x14F58, offset: 0x6CC1A, size: 0x8, addend: 0x0, symName: __ZNSt3__114basic_ifstreamIcNS_11char_traitsIcEEED0Ev, symObjAddr: 0x530, symBinAddr: 0x155F8, symSize: 0x60 }
  - { offsetInCU: 0x15000, offset: 0x6CCC2, size: 0x8, addend: 0x0, symName: __ZTv0_n24_NSt3__114basic_ifstreamIcNS_11char_traitsIcEEED0Ev, symObjAddr: 0x590, symBinAddr: 0x15658, symSize: 0x68 }
  - { offsetInCU: 0x150A6, offset: 0x6CD68, size: 0x8, addend: 0x0, symName: __ZNSt3__113basic_filebufIcNS_11char_traitsIcEEED1Ev, symObjAddr: 0x5F8, symBinAddr: 0x156C0, symSize: 0x4 }
  - { offsetInCU: 0x150C9, offset: 0x6CD8B, size: 0x8, addend: 0x0, symName: __ZNSt3__113basic_filebufIcNS_11char_traitsIcEEED1Ev, symObjAddr: 0x5F8, symBinAddr: 0x156C0, symSize: 0x4 }
  - { offsetInCU: 0x151F8, offset: 0x6CEBA, size: 0x8, addend: 0x0, symName: __ZNSt3__113basic_filebufIcNS_11char_traitsIcEEED0Ev, symObjAddr: 0x6EC, symBinAddr: 0x157B4, symSize: 0x14 }
  - { offsetInCU: 0x152A8, offset: 0x6CF6A, size: 0x8, addend: 0x0, symName: __ZNSt3__113basic_filebufIcNS_11char_traitsIcEEE5imbueERKNS_6localeE, symObjAddr: 0x700, symBinAddr: 0x157C8, symSize: 0xEC }
  - { offsetInCU: 0x1537C, offset: 0x6D03E, size: 0x8, addend: 0x0, symName: __ZNSt3__113basic_filebufIcNS_11char_traitsIcEEE6setbufEPcl, symObjAddr: 0x7EC, symBinAddr: 0x158B4, symSize: 0xF8 }
  - { offsetInCU: 0x1545F, offset: 0x6D121, size: 0x8, addend: 0x0, symName: __ZNSt3__113basic_filebufIcNS_11char_traitsIcEEE7seekoffExNS_8ios_base7seekdirEj, symObjAddr: 0x8E4, symBinAddr: 0x159AC, symSize: 0x100 }
  - { offsetInCU: 0x15591, offset: 0x6D253, size: 0x8, addend: 0x0, symName: __ZNSt3__113basic_filebufIcNS_11char_traitsIcEEE7seekposENS_4fposI11__mbstate_tEEj, symObjAddr: 0x9E4, symBinAddr: 0x15AAC, symSize: 0xB0 }
  - { offsetInCU: 0x155D6, offset: 0x6D298, size: 0x8, addend: 0x0, symName: __ZNSt3__113basic_filebufIcNS_11char_traitsIcEEE7seekposENS_4fposI11__mbstate_tEEj, symObjAddr: 0x9E4, symBinAddr: 0x15AAC, symSize: 0xB0 }
  - { offsetInCU: 0x15742, offset: 0x6D404, size: 0x8, addend: 0x0, symName: __ZNSt3__113basic_filebufIcNS_11char_traitsIcEEE4syncEv, symObjAddr: 0xA94, symBinAddr: 0x15B5C, symSize: 0x240 }
  - { offsetInCU: 0x15A00, offset: 0x6D6C2, size: 0x8, addend: 0x0, symName: __ZNSt3__113basic_filebufIcNS_11char_traitsIcEEE9underflowEv, symObjAddr: 0xCD4, symBinAddr: 0x15D9C, symSize: 0x264 }
  - { offsetInCU: 0x15ACC, offset: 0x6D78E, size: 0x8, addend: 0x0, symName: __ZNSt3__113basic_filebufIcNS_11char_traitsIcEEE9underflowEv, symObjAddr: 0xCD4, symBinAddr: 0x15D9C, symSize: 0x264 }
  - { offsetInCU: 0x15DF9, offset: 0x6DABB, size: 0x8, addend: 0x0, symName: __ZNSt3__113basic_filebufIcNS_11char_traitsIcEEE9pbackfailEi, symObjAddr: 0xF38, symBinAddr: 0x16000, symSize: 0x5C }
  - { offsetInCU: 0x15E24, offset: 0x6DAE6, size: 0x8, addend: 0x0, symName: __ZNSt3__113basic_filebufIcNS_11char_traitsIcEEE9pbackfailEi, symObjAddr: 0xF38, symBinAddr: 0x16000, symSize: 0x5C }
  - { offsetInCU: 0x15F8F, offset: 0x6DC51, size: 0x8, addend: 0x0, symName: __ZNSt3__113basic_filebufIcNS_11char_traitsIcEEE8overflowEi, symObjAddr: 0xF94, symBinAddr: 0x1605C, symSize: 0x180 }
  - { offsetInCU: 0x16286, offset: 0x6DF48, size: 0x8, addend: 0x0, symName: __ZNSt3__113basic_filebufIcNS_11char_traitsIcEEE12__write_modeEv, symObjAddr: 0x113C, symBinAddr: 0x16204, symSize: 0x68 }
  - { offsetInCU: 0x16644, offset: 0x6E306, size: 0x8, addend: 0x0, symName: __ZNSt3__112basic_stringIcNS_11char_traitsIcEENS_9allocatorIcEEEC2B7v160006Emc, symObjAddr: 0x16C8, symBinAddr: 0x16790, symSize: 0x98 }
  - { offsetInCU: 0x26, offset: 0x6E6A5, size: 0x8, addend: 0x0, symName: __ZN5agora3rtc9extension18ExtensionVideoSinkC2EPKc, symObjAddr: 0x0, symBinAddr: 0x16828, symSize: 0x4C }
  - { offsetInCU: 0x5D1B, offset: 0x7439A, size: 0x8, addend: 0x0, symName: __ZN5agora3rtc9extension18ExtensionVideoSinkC2EPKc, symObjAddr: 0x0, symBinAddr: 0x16828, symSize: 0x4C }
  - { offsetInCU: 0x6012, offset: 0x74691, size: 0x8, addend: 0x0, symName: __ZN5agora3rtc9extension18ExtensionVideoSinkD2Ev, symObjAddr: 0x4C, symBinAddr: 0x16874, symSize: 0x4 }
  - { offsetInCU: 0x6040, offset: 0x746BF, size: 0x8, addend: 0x0, symName: __ZN5agora3rtc9extension18ExtensionVideoSinkD2Ev, symObjAddr: 0x4C, symBinAddr: 0x16874, symSize: 0x4 }
  - { offsetInCU: 0x6053, offset: 0x746D2, size: 0x8, addend: 0x0, symName: __ZN5agora3rtc9extension10IExtensionINS_5media4base10VideoFrameEED2Ev, symObjAddr: 0x50, symBinAddr: 0x16878, symSize: 0x44 }
  - { offsetInCU: 0x62B7, offset: 0x74936, size: 0x8, addend: 0x0, symName: __ZNSt3__110shared_ptrIN5agora3rtc9extension17ExtensionDelegateINS1_5media4base10VideoFrameEEEED2B7v160006Ev, symObjAddr: 0x2B8, symBinAddr: 0x16AE0, symSize: 0x58 }
  - { offsetInCU: 0x6341, offset: 0x749C0, size: 0x8, addend: 0x0, symName: __ZN5agora3rtc9extension18ExtensionVideoSinkD1Ev, symObjAddr: 0x94, symBinAddr: 0x168BC, symSize: 0x4 }
  - { offsetInCU: 0x6381, offset: 0x74A00, size: 0x8, addend: 0x0, symName: __ZThn48_N5agora3rtc9extension18ExtensionVideoSinkD1Ev, symObjAddr: 0x98, symBinAddr: 0x168C0, symSize: 0x4 }
  - { offsetInCU: 0x639B, offset: 0x74A1A, size: 0x8, addend: 0x0, symName: __ZThn48_N5agora3rtc9extension18ExtensionVideoSinkD1Ev, symObjAddr: 0x98, symBinAddr: 0x168C0, symSize: 0x4 }
  - { offsetInCU: 0x63AC, offset: 0x74A2B, size: 0x8, addend: 0x0, symName: __ZN5agora3rtc9extension18ExtensionVideoSinkD0Ev, symObjAddr: 0x9C, symBinAddr: 0x168C4, symSize: 0x4 }
  - { offsetInCU: 0x63E7, offset: 0x74A66, size: 0x8, addend: 0x0, symName: __ZThn48_N5agora3rtc9extension18ExtensionVideoSinkD0Ev, symObjAddr: 0xA0, symBinAddr: 0x168C8, symSize: 0x4 }
  - { offsetInCU: 0x6401, offset: 0x74A80, size: 0x8, addend: 0x0, symName: __ZThn48_N5agora3rtc9extension18ExtensionVideoSinkD0Ev, symObjAddr: 0xA0, symBinAddr: 0x168C8, symSize: 0x4 }
  - { offsetInCU: 0x6412, offset: 0x74A91, size: 0x8, addend: 0x0, symName: __ZN5agora3rtc9extension18ExtensionVideoSink7onFrameERKNS_5media4base10VideoFrameE, symObjAddr: 0xA4, symBinAddr: 0x168CC, symSize: 0x38 }
  - { offsetInCU: 0x6485, offset: 0x74B04, size: 0x8, addend: 0x0, symName: __ZThn48_N5agora3rtc9extension18ExtensionVideoSink7onFrameERKNS_5media4base10VideoFrameE, symObjAddr: 0xDC, symBinAddr: 0x16904, symSize: 0x38 }
  - { offsetInCU: 0x64DE, offset: 0x74B5D, size: 0x8, addend: 0x0, symName: __ZN5agora3rtc9extension18ExtensionVideoSink11setPropertyEPKcPKvi, symObjAddr: 0x114, symBinAddr: 0x1693C, symSize: 0x4C }
  - { offsetInCU: 0x657F, offset: 0x74BFE, size: 0x8, addend: 0x0, symName: __ZThn48_N5agora3rtc9extension18ExtensionVideoSink11setPropertyEPKcPKvi, symObjAddr: 0x160, symBinAddr: 0x16988, symSize: 0x4C }
  - { offsetInCU: 0x65F3, offset: 0x74C72, size: 0x8, addend: 0x0, symName: __ZN5agora3rtc9extension18ExtensionVideoSink11getPropertyEPKcPvi, symObjAddr: 0x1AC, symBinAddr: 0x169D4, symSize: 0x4C }
  - { offsetInCU: 0x6695, offset: 0x74D14, size: 0x8, addend: 0x0, symName: __ZThn48_N5agora3rtc9extension18ExtensionVideoSink11getPropertyEPKcPvi, symObjAddr: 0x1F8, symBinAddr: 0x16A20, symSize: 0x4C }
  - { offsetInCU: 0x6709, offset: 0x74D88, size: 0x8, addend: 0x0, symName: __ZN5agora3rtc9extension18ExtensionVideoSink21onDataStreamWillStartEv, symObjAddr: 0x244, symBinAddr: 0x16A6C, symSize: 0x8 }
  - { offsetInCU: 0x672E, offset: 0x74DAD, size: 0x8, addend: 0x0, symName: __ZThn48_N5agora3rtc9extension18ExtensionVideoSink21onDataStreamWillStartEv, symObjAddr: 0x24C, symBinAddr: 0x16A74, symSize: 0x8 }
  - { offsetInCU: 0x6744, offset: 0x74DC3, size: 0x8, addend: 0x0, symName: __ZN5agora3rtc9extension18ExtensionVideoSink20onDataStreamWillStopEv, symObjAddr: 0x254, symBinAddr: 0x16A7C, symSize: 0x4 }
  - { offsetInCU: 0x6769, offset: 0x74DE8, size: 0x8, addend: 0x0, symName: __ZThn48_N5agora3rtc9extension18ExtensionVideoSink20onDataStreamWillStopEv, symObjAddr: 0x258, symBinAddr: 0x16A80, symSize: 0x4 }
  - { offsetInCU: 0x67D7, offset: 0x74E56, size: 0x8, addend: 0x0, symName: __ZNK5agora3rtc9extension10IExtensionINS_5media4base10VideoFrameEE7getNameEv, symObjAddr: 0x25C, symBinAddr: 0x16A84, symSize: 0x1C }
  - { offsetInCU: 0x6880, offset: 0x74EFF, size: 0x8, addend: 0x0, symName: __ZN5agora3rtc9extension10IExtensionINS_5media4base10VideoFrameEE11SetDelegateEPNS1_17ExtensionDelegateIS5_EE, symObjAddr: 0x278, symBinAddr: 0x16AA0, symSize: 0x8 }
  - { offsetInCU: 0x68CB, offset: 0x74F4A, size: 0x8, addend: 0x0, symName: __ZNSt3__110shared_ptrIN5agora3rtc9extension17ExtensionDelegateINS1_5media4base10VideoFrameEEEE5resetB7v160006IS8_vEEvPT_, symObjAddr: 0x434, symBinAddr: 0x16B38, symSize: 0x70 }
  - { offsetInCU: 0x6A60, offset: 0x750DF, size: 0x8, addend: 0x0, symName: __ZNK5agora3rtc9extension10IExtensionINS_5media4base10VideoFrameEE11GetDelegateEv, symObjAddr: 0x280, symBinAddr: 0x16AA8, symSize: 0x8 }
  - { offsetInCU: 0x6A8A, offset: 0x75109, size: 0x8, addend: 0x0, symName: __ZNK5agora3rtc9extension10IExtensionINS_5media4base10VideoFrameEE11GetDelegateEv, symObjAddr: 0x280, symBinAddr: 0x16AA8, symSize: 0x8 }
  - { offsetInCU: 0x6AA5, offset: 0x75124, size: 0x8, addend: 0x0, symName: __ZN5agora3rtc14IVideoSinkBase14isExternalSinkEv, symObjAddr: 0x288, symBinAddr: 0x16AB0, symSize: 0x8 }
  - { offsetInCU: 0x6ACC, offset: 0x7514B, size: 0x8, addend: 0x0, symName: __ZN5agora3rtc14IVideoSinkBase11applyMirrorEv, symObjAddr: 0x290, symBinAddr: 0x16AB8, symSize: 0x8 }
  - { offsetInCU: 0x6AF3, offset: 0x75172, size: 0x8, addend: 0x0, symName: __ZN5agora3rtc14IVideoSinkBase13applyRotationEv, symObjAddr: 0x298, symBinAddr: 0x16AC0, symSize: 0x8 }
  - { offsetInCU: 0x6B1A, offset: 0x75199, size: 0x8, addend: 0x0, symName: __ZN5agora3rtc9extension10IExtensionINS_5media4base10VideoFrameEED1Ev, symObjAddr: 0x2A0, symBinAddr: 0x16AC8, symSize: 0x4 }
  - { offsetInCU: 0x6B3D, offset: 0x751BC, size: 0x8, addend: 0x0, symName: __ZN5agora3rtc9extension10IExtensionINS_5media4base10VideoFrameEED1Ev, symObjAddr: 0x2A0, symBinAddr: 0x16AC8, symSize: 0x4 }
  - { offsetInCU: 0x6B6A, offset: 0x751E9, size: 0x8, addend: 0x0, symName: __ZN5agora3rtc9extension10IExtensionINS_5media4base10VideoFrameEED0Ev, symObjAddr: 0x2A4, symBinAddr: 0x16ACC, symSize: 0x14 }
  - { offsetInCU: 0x6E9E, offset: 0x7551D, size: 0x8, addend: 0x0, symName: __ZNSt3__110shared_ptrIN5agora3rtc9extension17ExtensionDelegateINS1_5media4base10VideoFrameEEEEC2IS8_vEEPT_, symObjAddr: 0x4A4, symBinAddr: 0x16BA8, symSize: 0x68 }
  - { offsetInCU: 0x7272, offset: 0x758F1, size: 0x8, addend: 0x0, symName: __ZNSt3__120__shared_ptr_pointerIPN5agora3rtc9extension17ExtensionDelegateINS1_5media4base10VideoFrameEEENS_10shared_ptrIS8_E27__shared_ptr_default_deleteIS8_S8_EENS_9allocatorIS8_EEED1Ev, symObjAddr: 0x50C, symBinAddr: 0x16C10, symSize: 0x4 }
  - { offsetInCU: 0x7295, offset: 0x75914, size: 0x8, addend: 0x0, symName: __ZNSt3__120__shared_ptr_pointerIPN5agora3rtc9extension17ExtensionDelegateINS1_5media4base10VideoFrameEEENS_10shared_ptrIS8_E27__shared_ptr_default_deleteIS8_S8_EENS_9allocatorIS8_EEED1Ev, symObjAddr: 0x50C, symBinAddr: 0x16C10, symSize: 0x4 }
  - { offsetInCU: 0x72CA, offset: 0x75949, size: 0x8, addend: 0x0, symName: __ZNSt3__120__shared_ptr_pointerIPN5agora3rtc9extension17ExtensionDelegateINS1_5media4base10VideoFrameEEENS_10shared_ptrIS8_E27__shared_ptr_default_deleteIS8_S8_EENS_9allocatorIS8_EEED0Ev, symObjAddr: 0x510, symBinAddr: 0x16C14, symSize: 0x14 }
  - { offsetInCU: 0x732D, offset: 0x759AC, size: 0x8, addend: 0x0, symName: __ZNSt3__120__shared_ptr_pointerIPN5agora3rtc9extension17ExtensionDelegateINS1_5media4base10VideoFrameEEENS_10shared_ptrIS8_E27__shared_ptr_default_deleteIS8_S8_EENS_9allocatorIS8_EEE16__on_zero_sharedEv, symObjAddr: 0x524, symBinAddr: 0x16C28, symSize: 0x18 }
  - { offsetInCU: 0x737D, offset: 0x759FC, size: 0x8, addend: 0x0, symName: __ZNKSt3__120__shared_ptr_pointerIPN5agora3rtc9extension17ExtensionDelegateINS1_5media4base10VideoFrameEEENS_10shared_ptrIS8_E27__shared_ptr_default_deleteIS8_S8_EENS_9allocatorIS8_EEE13__get_deleterERKSt9type_info, symObjAddr: 0x53C, symBinAddr: 0x16C40, symSize: 0x3C }
  - { offsetInCU: 0x7451, offset: 0x75AD0, size: 0x8, addend: 0x0, symName: __ZNSt3__120__shared_ptr_pointerIPN5agora3rtc9extension17ExtensionDelegateINS1_5media4base10VideoFrameEEENS_10shared_ptrIS8_E27__shared_ptr_default_deleteIS8_S8_EENS_9allocatorIS8_EEE21__on_zero_shared_weakEv, symObjAddr: 0x578, symBinAddr: 0x16C7C, symSize: 0x4 }
  - { offsetInCU: 0x7487, offset: 0x75B06, size: 0x8, addend: 0x0, symName: __ZNSt3__120__shared_ptr_pointerIPN5agora3rtc9extension17ExtensionDelegateINS1_5media4base10VideoFrameEEENS_10shared_ptrIS8_E27__shared_ptr_default_deleteIS8_S8_EENS_9allocatorIS8_EEE21__on_zero_shared_weakEv, symObjAddr: 0x578, symBinAddr: 0x16C7C, symSize: 0x4 }
  - { offsetInCU: 0x74AB, offset: 0x75B2A, size: 0x8, addend: 0x0, symName: __ZNSt3__120__shared_ptr_pointerIPN5agora3rtc9extension17ExtensionDelegateINS1_5media4base10VideoFrameEEENS_10shared_ptrIS8_E27__shared_ptr_default_deleteIS8_S8_EENS_9allocatorIS8_EEE21__on_zero_shared_weakEv, symObjAddr: 0x578, symBinAddr: 0x16C7C, symSize: 0x4 }
  - { offsetInCU: 0x74D7, offset: 0x75B56, size: 0x8, addend: 0x0, symName: __ZNSt3__120__shared_ptr_pointerIPN5agora3rtc9extension17ExtensionDelegateINS1_5media4base10VideoFrameEEENS_10shared_ptrIS8_E27__shared_ptr_default_deleteIS8_S8_EENS_9allocatorIS8_EEE21__on_zero_shared_weakEv, symObjAddr: 0x578, symBinAddr: 0x16C7C, symSize: 0x4 }
  - { offsetInCU: 0x74FE, offset: 0x75B7D, size: 0x8, addend: 0x0, symName: __ZNSt3__120__shared_ptr_pointerIPN5agora3rtc9extension17ExtensionDelegateINS1_5media4base10VideoFrameEEENS_10shared_ptrIS8_E27__shared_ptr_default_deleteIS8_S8_EENS_9allocatorIS8_EEE21__on_zero_shared_weakEv, symObjAddr: 0x578, symBinAddr: 0x16C7C, symSize: 0x4 }
  - { offsetInCU: 0x26, offset: 0x75C0D, size: 0x8, addend: 0x0, symName: __ZN5agora3rtc9extension24ExtensionPropertyBinding19ProcessPropertyFuncENSt3__112basic_stringIcNS3_11char_traitsIcEENS3_9allocatorIcEEEERN9rapidjson15GenericDocumentINSA_4UTF8IcEENSA_19MemoryPoolAllocatorINSA_12CrtAllocatorEEESF_EE, symObjAddr: 0x0, symBinAddr: 0x16C80, symSize: 0x58 }
  - { offsetInCU: 0x66C0, offset: 0x7C2A7, size: 0x8, addend: 0x0, symName: __ZNSt3__125__throw_bad_function_callB7v160006Ev, symObjAddr: 0x180, symBinAddr: 0x16E00, symSize: 0x34 }
  - { offsetInCU: 0x6713, offset: 0x7C2FA, size: 0x8, addend: 0x0, symName: __ZNSt3__1ssB7v160006IcNS_11char_traitsIcEENS_9allocatorIcEEEEDaRKNS_12basic_stringIT_T0_T1_EESC_, symObjAddr: 0xD4, symBinAddr: 0x16D54, symSize: 0x64 }
  - { offsetInCU: 0x8E08, offset: 0x7E9EF, size: 0x8, addend: 0x0, symName: __ZN5agora3rtc9extension24ExtensionPropertyBinding19ProcessPropertyFuncENSt3__112basic_stringIcNS3_11char_traitsIcEENS3_9allocatorIcEEEERN9rapidjson15GenericDocumentINSA_4UTF8IcEENSA_19MemoryPoolAllocatorINSA_12CrtAllocatorEEESF_EE, symObjAddr: 0x0, symBinAddr: 0x16C80, symSize: 0x58 }
  - { offsetInCU: 0x8F3C, offset: 0x7EB23, size: 0x8, addend: 0x0, symName: __ZNSt3__16__treeINS_12__value_typeINS_12basic_stringIcNS_11char_traitsIcEENS_9allocatorIcEEEENS_8functionIFiRKN9rapidjson15GenericDocumentINS9_4UTF8IcEENS9_19MemoryPoolAllocatorINS9_12CrtAllocatorEEESE_EEEEEEENS_19__map_value_compareIS7_SL_NS_4lessIS7_EELb1EEENS5_ISL_EEE4findIS7_EENS_15__tree_iteratorISL_PNS_11__tree_nodeISL_PvEElEERKT_, symObjAddr: 0x58, symBinAddr: 0x16CD8, symSize: 0x7C }
  - { offsetInCU: 0x8F46, offset: 0x7EB2D, size: 0x8, addend: 0x0, symName: __ZNSt3__16__treeINS_12__value_typeINS_12basic_stringIcNS_11char_traitsIcEENS_9allocatorIcEEEENS_8functionIFiRKN9rapidjson15GenericDocumentINS9_4UTF8IcEENS9_19MemoryPoolAllocatorINS9_12CrtAllocatorEEESE_EEEEEEENS_19__map_value_compareIS7_SL_NS_4lessIS7_EELb1EEENS5_ISL_EEE4findIS7_EENS_15__tree_iteratorISL_PNS_11__tree_nodeISL_PvEElEERKT_, symObjAddr: 0x58, symBinAddr: 0x16CD8, symSize: 0x7C }
  - { offsetInCU: 0x922D, offset: 0x7EE14, size: 0x8, addend: 0x0, symName: __ZNKSt3__117basic_string_viewIcNS_11char_traitsIcEEE7compareES3_, symObjAddr: 0x138, symBinAddr: 0x16DB8, symSize: 0x48 }
  - { offsetInCU: 0x93BD, offset: 0x7EFA4, size: 0x8, addend: 0x0, symName: __ZNSt3__117bad_function_callD1Ev, symObjAddr: 0x1B4, symBinAddr: 0x16E34, symSize: 0x4 }
  - { offsetInCU: 0x93DF, offset: 0x7EFC6, size: 0x8, addend: 0x0, symName: __ZNSt3__117bad_function_callD1Ev, symObjAddr: 0x1B4, symBinAddr: 0x16E34, symSize: 0x4 }
  - { offsetInCU: 0x9413, offset: 0x7EFFA, size: 0x8, addend: 0x0, symName: __ZNSt3__117bad_function_callD0Ev, symObjAddr: 0x1B8, symBinAddr: 0x16E38, symSize: 0x14 }
  - { offsetInCU: 0x27, offset: 0x7F086, size: 0x8, addend: 0x0, symName: __ZN5agora3rtc9extension9EGLHelperC2Ev, symObjAddr: 0x0, symBinAddr: 0x16E4C, symSize: 0x48 }
  - { offsetInCU: 0x454, offset: 0x7F4B3, size: 0x8, addend: 0x0, symName: __ZN5agora3rtc9extension9EGLHelperC2Ev, symObjAddr: 0x0, symBinAddr: 0x16E4C, symSize: 0x48 }
  - { offsetInCU: 0x4CF, offset: 0x7F52E, size: 0x8, addend: 0x0, symName: __ZN5agora3rtc9extension9EGLHelperC1Ev, symObjAddr: 0x48, symBinAddr: 0x16E94, symSize: 0x48 }
  - { offsetInCU: 0x550, offset: 0x7F5AF, size: 0x8, addend: 0x0, symName: __ZN5agora3rtc9extension9EGLHelperD2Ev, symObjAddr: 0x90, symBinAddr: 0x16EDC, symSize: 0x40 }
  - { offsetInCU: 0x599, offset: 0x7F5F8, size: 0x8, addend: 0x0, symName: __ZN5agora3rtc9extension9EGLHelperD1Ev, symObjAddr: 0xD0, symBinAddr: 0x16F1C, symSize: 0x40 }
  - { offsetInCU: 0x5FE, offset: 0x7F65D, size: 0x8, addend: 0x0, symName: __ZN5agora3rtc9extension9EGLHelperD0Ev, symObjAddr: 0x110, symBinAddr: 0x16F5C, symSize: 0x40 }
  - { offsetInCU: 0x66E, offset: 0x7F6CD, size: 0x8, addend: 0x0, symName: __ZN5agora3rtc9extension9EGLHelper4InitEPv, symObjAddr: 0x150, symBinAddr: 0x16F9C, symSize: 0x8 }
  - { offsetInCU: 0x6B2, offset: 0x7F711, size: 0x8, addend: 0x0, symName: __ZN5agora3rtc9extension9EGLHelper4Impl4InitEv, symObjAddr: 0x158, symBinAddr: 0x16FA4, symSize: 0x84 }
  - { offsetInCU: 0x6D9, offset: 0x7F738, size: 0x8, addend: 0x0, symName: __ZN5agora3rtc9extension9EGLHelper7ReleaseEv, symObjAddr: 0x1DC, symBinAddr: 0x17028, symSize: 0x8 }
  - { offsetInCU: 0x70F, offset: 0x7F76E, size: 0x8, addend: 0x0, symName: __ZN5agora3rtc9extension9EGLHelper4Impl7ReleaseEv, symObjAddr: 0x1E4, symBinAddr: 0x17030, symSize: 0x88 }
  - { offsetInCU: 0x754, offset: 0x7F7B3, size: 0x8, addend: 0x0, symName: __ZN5agora3rtc9extension9EGLHelper11MakeCurrentEv, symObjAddr: 0x26C, symBinAddr: 0x170B8, symSize: 0x8 }
  - { offsetInCU: 0x78A, offset: 0x7F7E9, size: 0x8, addend: 0x0, symName: __ZN5agora3rtc9extension9EGLHelper4Impl11MakeCurrentEv, symObjAddr: 0x274, symBinAddr: 0x170C0, symSize: 0x78 }
  - { offsetInCU: 0x7CF, offset: 0x7F82E, size: 0x8, addend: 0x0, symName: __ZN5agora3rtc9extension9EGLHelper13DetachCurrentEv, symObjAddr: 0x2EC, symBinAddr: 0x17138, symSize: 0x8 }
  - { offsetInCU: 0x805, offset: 0x7F864, size: 0x8, addend: 0x0, symName: __ZN5agora3rtc9extension9EGLHelper4Impl13DetachCurrentEv, symObjAddr: 0x2F4, symBinAddr: 0x17140, symSize: 0x84 }
  - { offsetInCU: 0x84A, offset: 0x7F8A9, size: 0x8, addend: 0x0, symName: __ZN5agora3rtc9extension9EGLHelper4ImplD1Ev, symObjAddr: 0x378, symBinAddr: 0x171C4, symSize: 0x4 }
  - { offsetInCU: 0x86D, offset: 0x7F8CC, size: 0x8, addend: 0x0, symName: __ZN5agora3rtc9extension9EGLHelper4ImplD1Ev, symObjAddr: 0x378, symBinAddr: 0x171C4, symSize: 0x4 }
  - { offsetInCU: 0x880, offset: 0x7F8DF, size: 0x8, addend: 0x0, symName: __ZN5agora3rtc9extension9EGLHelper4ImplD2Ev, symObjAddr: 0x390, symBinAddr: 0x171DC, symSize: 0x40 }
  - { offsetInCU: 0x8DA, offset: 0x7F939, size: 0x8, addend: 0x0, symName: __ZN5agora3rtc9extension9EGLHelper4ImplD0Ev, symObjAddr: 0x37C, symBinAddr: 0x171C8, symSize: 0x14 }
  - { offsetInCU: 0x6062, offset: 0x859F5, size: 0x8, addend: 0x0, symName: __ZN5agora3rtc9extension20ExtensionVideoFilterC2EPKc, symObjAddr: 0x0, symBinAddr: 0x1721C, symSize: 0x4C }
  - { offsetInCU: 0x6436, offset: 0x85DC9, size: 0x8, addend: 0x0, symName: __ZN5agora3rtc9extension10IExtensionINS0_14VideoFrameDataEED2Ev, symObjAddr: 0x4C, symBinAddr: 0x17268, symSize: 0x44 }
  - { offsetInCU: 0x65B5, offset: 0x85F48, size: 0x8, addend: 0x0, symName: __ZNSt3__110shared_ptrIN5agora3rtc9extension17ExtensionDelegateINS2_14VideoFrameDataEEEED2B7v160006Ev, symObjAddr: 0x98C, symBinAddr: 0x17BA8, symSize: 0x58 }
  - { offsetInCU: 0x668E, offset: 0x86021, size: 0x8, addend: 0x0, symName: __ZN5agora3rtc9extension20ExtensionVideoFilterD2Ev, symObjAddr: 0x90, symBinAddr: 0x172AC, symSize: 0x50 }
  - { offsetInCU: 0x6725, offset: 0x860B8, size: 0x8, addend: 0x0, symName: __ZN5agora3rtc9extension20ExtensionVideoFilterD1Ev, symObjAddr: 0xE0, symBinAddr: 0x172FC, symSize: 0x4 }
  - { offsetInCU: 0x6765, offset: 0x860F8, size: 0x8, addend: 0x0, symName: __ZThn48_N5agora3rtc9extension20ExtensionVideoFilterD1Ev, symObjAddr: 0xE4, symBinAddr: 0x17300, symSize: 0x4 }
  - { offsetInCU: 0x677F, offset: 0x86112, size: 0x8, addend: 0x0, symName: __ZThn48_N5agora3rtc9extension20ExtensionVideoFilterD1Ev, symObjAddr: 0xE4, symBinAddr: 0x17300, symSize: 0x4 }
  - { offsetInCU: 0x6790, offset: 0x86123, size: 0x8, addend: 0x0, symName: __ZN5agora3rtc9extension20ExtensionVideoFilterD0Ev, symObjAddr: 0xE8, symBinAddr: 0x17304, symSize: 0x4 }
  - { offsetInCU: 0x67CB, offset: 0x8615E, size: 0x8, addend: 0x0, symName: __ZThn48_N5agora3rtc9extension20ExtensionVideoFilterD0Ev, symObjAddr: 0xEC, symBinAddr: 0x17308, symSize: 0x4 }
  - { offsetInCU: 0x67E5, offset: 0x86178, size: 0x8, addend: 0x0, symName: __ZThn48_N5agora3rtc9extension20ExtensionVideoFilterD0Ev, symObjAddr: 0xEC, symBinAddr: 0x17308, symSize: 0x4 }
  - { offsetInCU: 0x67F6, offset: 0x86189, size: 0x8, addend: 0x0, symName: __ZN5agora3rtc9extension20ExtensionVideoFilter14getProcessModeERNS0_21IExtensionVideoFilter11ProcessModeERb, symObjAddr: 0xF0, symBinAddr: 0x1730C, symSize: 0x64 }
  - { offsetInCU: 0x6891, offset: 0x86224, size: 0x8, addend: 0x0, symName: __ZThn48_N5agora3rtc9extension20ExtensionVideoFilter14getProcessModeERNS0_21IExtensionVideoFilter11ProcessModeERb, symObjAddr: 0x154, symBinAddr: 0x17370, symSize: 0x64 }
  - { offsetInCU: 0x68FA, offset: 0x8628D, size: 0x8, addend: 0x0, symName: __ZN5agora3rtc9extension20ExtensionVideoFilter5startENS_12agora_refptrINS0_21IExtensionVideoFilter7ControlEEE, symObjAddr: 0x1B8, symBinAddr: 0x173D4, symSize: 0x44 }
  - { offsetInCU: 0x6957, offset: 0x862EA, size: 0x8, addend: 0x0, symName: __ZN5agora12agora_refptrINS_3rtc21IExtensionVideoFilter7ControlEEaSERKS4_, symObjAddr: 0x1FC, symBinAddr: 0x17418, symSize: 0x5C }
  - { offsetInCU: 0x6A49, offset: 0x863DC, size: 0x8, addend: 0x0, symName: __ZThn48_N5agora3rtc9extension20ExtensionVideoFilter5startENS_12agora_refptrINS0_21IExtensionVideoFilter7ControlEEE, symObjAddr: 0x258, symBinAddr: 0x17474, symSize: 0x44 }
  - { offsetInCU: 0x6AB9, offset: 0x8644C, size: 0x8, addend: 0x0, symName: __ZN5agora3rtc9extension20ExtensionVideoFilter4stopEv, symObjAddr: 0x29C, symBinAddr: 0x174B8, symSize: 0x2C }
  - { offsetInCU: 0x6B11, offset: 0x864A4, size: 0x8, addend: 0x0, symName: __ZThn48_N5agora3rtc9extension20ExtensionVideoFilter4stopEv, symObjAddr: 0x2C8, symBinAddr: 0x174E4, symSize: 0x2C }
  - { offsetInCU: 0x6B5C, offset: 0x864EF, size: 0x8, addend: 0x0, symName: __ZN5agora3rtc9extension20ExtensionVideoFilter20getVideoFormatWantedERNS0_14VideoFrameData4TypeERNS0_14RawPixelBuffer6FormatE, symObjAddr: 0x2F4, symBinAddr: 0x17510, symSize: 0x60 }
  - { offsetInCU: 0x6BF7, offset: 0x8658A, size: 0x8, addend: 0x0, symName: __ZThn48_N5agora3rtc9extension20ExtensionVideoFilter20getVideoFormatWantedERNS0_14VideoFrameData4TypeERNS0_14RawPixelBuffer6FormatE, symObjAddr: 0x354, symBinAddr: 0x17570, symSize: 0x60 }
  - { offsetInCU: 0x6DC5, offset: 0x86758, size: 0x8, addend: 0x0, symName: __ZN5agora3rtc9extension20ExtensionVideoFilter14pendVideoFrameENS_12agora_refptrINS0_11IVideoFrameEEE, symObjAddr: 0x3B4, symBinAddr: 0x175D0, symSize: 0x198 }
  - { offsetInCU: 0x70F5, offset: 0x86A88, size: 0x8, addend: 0x0, symName: __ZThn48_N5agora3rtc9extension20ExtensionVideoFilter14pendVideoFrameENS_12agora_refptrINS0_11IVideoFrameEEE, symObjAddr: 0x54C, symBinAddr: 0x17768, symSize: 0x8 }
  - { offsetInCU: 0x7122, offset: 0x86AB5, size: 0x8, addend: 0x0, symName: __ZN5agora3rtc9extension20ExtensionVideoFilter15adaptVideoFrameENS_12agora_refptrINS0_11IVideoFrameEEERS5_, symObjAddr: 0x554, symBinAddr: 0x17770, symSize: 0xF0 }
  - { offsetInCU: 0x72BA, offset: 0x86C4D, size: 0x8, addend: 0x0, symName: __ZN5agora12agora_refptrINS_3rtc11IVideoFrameEEaSERKS3_, symObjAddr: 0x644, symBinAddr: 0x17860, symSize: 0x5C }
  - { offsetInCU: 0x7384, offset: 0x86D17, size: 0x8, addend: 0x0, symName: __ZThn48_N5agora3rtc9extension20ExtensionVideoFilter15adaptVideoFrameENS_12agora_refptrINS0_11IVideoFrameEEERS5_, symObjAddr: 0x6A0, symBinAddr: 0x178BC, symSize: 0x8 }
  - { offsetInCU: 0x73B8, offset: 0x86D4B, size: 0x8, addend: 0x0, symName: __ZN5agora3rtc9extension20ExtensionVideoFilter18getRotationAppliedEv, symObjAddr: 0x6A8, symBinAddr: 0x178C4, symSize: 0x48 }
  - { offsetInCU: 0x742B, offset: 0x86DBE, size: 0x8, addend: 0x0, symName: __ZThn48_N5agora3rtc9extension20ExtensionVideoFilter18getRotationAppliedEv, symObjAddr: 0x6F0, symBinAddr: 0x1790C, symSize: 0x48 }
  - { offsetInCU: 0x7486, offset: 0x86E19, size: 0x8, addend: 0x0, symName: __ZN5agora3rtc9extension20ExtensionVideoFilter10setEnabledEb, symObjAddr: 0x738, symBinAddr: 0x17954, symSize: 0x34 }
  - { offsetInCU: 0x74FA, offset: 0x86E8D, size: 0x8, addend: 0x0, symName: __ZThn48_N5agora3rtc9extension20ExtensionVideoFilter10setEnabledEb, symObjAddr: 0x76C, symBinAddr: 0x17988, symSize: 0x34 }
  - { offsetInCU: 0x754D, offset: 0x86EE0, size: 0x8, addend: 0x0, symName: __ZN5agora3rtc9extension20ExtensionVideoFilter9isEnabledEv, symObjAddr: 0x7A0, symBinAddr: 0x179BC, symSize: 0x24 }
  - { offsetInCU: 0x75A6, offset: 0x86F39, size: 0x8, addend: 0x0, symName: __ZThn48_N5agora3rtc9extension20ExtensionVideoFilter9isEnabledEv, symObjAddr: 0x7C4, symBinAddr: 0x179E0, symSize: 0x24 }
  - { offsetInCU: 0x75F2, offset: 0x86F85, size: 0x8, addend: 0x0, symName: __ZN5agora3rtc9extension20ExtensionVideoFilter11setPropertyEPKcPKvm, symObjAddr: 0x7E8, symBinAddr: 0x17A04, symSize: 0x4C }
  - { offsetInCU: 0x769A, offset: 0x8702D, size: 0x8, addend: 0x0, symName: __ZThn48_N5agora3rtc9extension20ExtensionVideoFilter11setPropertyEPKcPKvm, symObjAddr: 0x834, symBinAddr: 0x17A50, symSize: 0x4C }
  - { offsetInCU: 0x7714, offset: 0x870A7, size: 0x8, addend: 0x0, symName: __ZN5agora3rtc9extension20ExtensionVideoFilter11getPropertyEPKcPvm, symObjAddr: 0x880, symBinAddr: 0x17A9C, symSize: 0x4C }
  - { offsetInCU: 0x77BC, offset: 0x8714F, size: 0x8, addend: 0x0, symName: __ZThn48_N5agora3rtc9extension20ExtensionVideoFilter11getPropertyEPKcPvm, symObjAddr: 0x8CC, symBinAddr: 0x17AE8, symSize: 0x4C }
  - { offsetInCU: 0x7836, offset: 0x871C9, size: 0x8, addend: 0x0, symName: __ZN5agora3rtc9extension20ExtensionVideoFilter21onDataStreamWillStartEv, symObjAddr: 0x918, symBinAddr: 0x17B34, symSize: 0x8 }
  - { offsetInCU: 0x785B, offset: 0x871EE, size: 0x8, addend: 0x0, symName: __ZThn48_N5agora3rtc9extension20ExtensionVideoFilter21onDataStreamWillStartEv, symObjAddr: 0x920, symBinAddr: 0x17B3C, symSize: 0x8 }
  - { offsetInCU: 0x7871, offset: 0x87204, size: 0x8, addend: 0x0, symName: __ZN5agora3rtc9extension20ExtensionVideoFilter20onDataStreamWillStopEv, symObjAddr: 0x928, symBinAddr: 0x17B44, symSize: 0x4 }
  - { offsetInCU: 0x7896, offset: 0x87229, size: 0x8, addend: 0x0, symName: __ZThn48_N5agora3rtc9extension20ExtensionVideoFilter20onDataStreamWillStopEv, symObjAddr: 0x92C, symBinAddr: 0x17B48, symSize: 0x4 }
  - { offsetInCU: 0x7904, offset: 0x87297, size: 0x8, addend: 0x0, symName: __ZNK5agora3rtc9extension10IExtensionINS0_14VideoFrameDataEE7getNameEv, symObjAddr: 0x930, symBinAddr: 0x17B4C, symSize: 0x1C }
  - { offsetInCU: 0x79AD, offset: 0x87340, size: 0x8, addend: 0x0, symName: __ZN5agora3rtc9extension10IExtensionINS0_14VideoFrameDataEE11SetDelegateEPNS1_17ExtensionDelegateIS3_EE, symObjAddr: 0x94C, symBinAddr: 0x17B68, symSize: 0x8 }
  - { offsetInCU: 0x79F8, offset: 0x8738B, size: 0x8, addend: 0x0, symName: __ZNSt3__110shared_ptrIN5agora3rtc9extension17ExtensionDelegateINS2_14VideoFrameDataEEEE5resetB7v160006IS6_vEEvPT_, symObjAddr: 0xB14, symBinAddr: 0x17C00, symSize: 0x70 }
  - { offsetInCU: 0x7B8D, offset: 0x87520, size: 0x8, addend: 0x0, symName: __ZNK5agora3rtc9extension10IExtensionINS0_14VideoFrameDataEE11GetDelegateEv, symObjAddr: 0x954, symBinAddr: 0x17B70, symSize: 0x8 }
  - { offsetInCU: 0x7BB7, offset: 0x8754A, size: 0x8, addend: 0x0, symName: __ZNK5agora3rtc9extension10IExtensionINS0_14VideoFrameDataEE11GetDelegateEv, symObjAddr: 0x954, symBinAddr: 0x17B70, symSize: 0x8 }
  - { offsetInCU: 0x7BD2, offset: 0x87565, size: 0x8, addend: 0x0, symName: __ZN5agora3rtc21IExtensionVideoFilter15adaptVideoFrameERKNS_5media4base10VideoFrameERS4_, symObjAddr: 0x95C, symBinAddr: 0x17B78, symSize: 0x8 }
  - { offsetInCU: 0x7C17, offset: 0x875AA, size: 0x8, addend: 0x0, symName: __ZN5agora3rtc12IVideoFilter10isExternalEv, symObjAddr: 0x964, symBinAddr: 0x17B80, symSize: 0x8 }
  - { offsetInCU: 0x7C3E, offset: 0x875D1, size: 0x8, addend: 0x0, symName: __ZN5agora3rtc21IExtensionVideoFilter17isExtensionFilterEv, symObjAddr: 0x96C, symBinAddr: 0x17B88, symSize: 0x8 }
  - { offsetInCU: 0x7C65, offset: 0x875F8, size: 0x8, addend: 0x0, symName: __ZN5agora3rtc9extension10IExtensionINS0_14VideoFrameDataEED1Ev, symObjAddr: 0x974, symBinAddr: 0x17B90, symSize: 0x4 }
  - { offsetInCU: 0x7C88, offset: 0x8761B, size: 0x8, addend: 0x0, symName: __ZN5agora3rtc9extension10IExtensionINS0_14VideoFrameDataEED1Ev, symObjAddr: 0x974, symBinAddr: 0x17B90, symSize: 0x4 }
  - { offsetInCU: 0x7CB5, offset: 0x87648, size: 0x8, addend: 0x0, symName: __ZN5agora3rtc9extension10IExtensionINS0_14VideoFrameDataEED0Ev, symObjAddr: 0x978, symBinAddr: 0x17B94, symSize: 0x14 }
  - { offsetInCU: 0x7FE9, offset: 0x8797C, size: 0x8, addend: 0x0, symName: __ZNSt3__110shared_ptrIN5agora3rtc9extension17ExtensionDelegateINS2_14VideoFrameDataEEEEC2IS6_vEEPT_, symObjAddr: 0xB84, symBinAddr: 0x17C70, symSize: 0x68 }
  - { offsetInCU: 0x83BD, offset: 0x87D50, size: 0x8, addend: 0x0, symName: __ZNSt3__120__shared_ptr_pointerIPN5agora3rtc9extension17ExtensionDelegateINS2_14VideoFrameDataEEENS_10shared_ptrIS6_E27__shared_ptr_default_deleteIS6_S6_EENS_9allocatorIS6_EEED1Ev, symObjAddr: 0xBEC, symBinAddr: 0x17CD8, symSize: 0x4 }
  - { offsetInCU: 0x83E0, offset: 0x87D73, size: 0x8, addend: 0x0, symName: __ZNSt3__120__shared_ptr_pointerIPN5agora3rtc9extension17ExtensionDelegateINS2_14VideoFrameDataEEENS_10shared_ptrIS6_E27__shared_ptr_default_deleteIS6_S6_EENS_9allocatorIS6_EEED1Ev, symObjAddr: 0xBEC, symBinAddr: 0x17CD8, symSize: 0x4 }
  - { offsetInCU: 0x8415, offset: 0x87DA8, size: 0x8, addend: 0x0, symName: __ZNSt3__120__shared_ptr_pointerIPN5agora3rtc9extension17ExtensionDelegateINS2_14VideoFrameDataEEENS_10shared_ptrIS6_E27__shared_ptr_default_deleteIS6_S6_EENS_9allocatorIS6_EEED0Ev, symObjAddr: 0xBF0, symBinAddr: 0x17CDC, symSize: 0x14 }
  - { offsetInCU: 0x8478, offset: 0x87E0B, size: 0x8, addend: 0x0, symName: __ZNSt3__120__shared_ptr_pointerIPN5agora3rtc9extension17ExtensionDelegateINS2_14VideoFrameDataEEENS_10shared_ptrIS6_E27__shared_ptr_default_deleteIS6_S6_EENS_9allocatorIS6_EEE16__on_zero_sharedEv, symObjAddr: 0xC04, symBinAddr: 0x17CF0, symSize: 0x18 }
  - { offsetInCU: 0x84C8, offset: 0x87E5B, size: 0x8, addend: 0x0, symName: __ZNKSt3__120__shared_ptr_pointerIPN5agora3rtc9extension17ExtensionDelegateINS2_14VideoFrameDataEEENS_10shared_ptrIS6_E27__shared_ptr_default_deleteIS6_S6_EENS_9allocatorIS6_EEE13__get_deleterERKSt9type_info, symObjAddr: 0xC1C, symBinAddr: 0x17D08, symSize: 0x3C }
  - { offsetInCU: 0x859C, offset: 0x87F2F, size: 0x8, addend: 0x0, symName: __ZNSt3__120__shared_ptr_pointerIPN5agora3rtc9extension17ExtensionDelegateINS2_14VideoFrameDataEEENS_10shared_ptrIS6_E27__shared_ptr_default_deleteIS6_S6_EENS_9allocatorIS6_EEE21__on_zero_shared_weakEv, symObjAddr: 0xC58, symBinAddr: 0x17D44, symSize: 0x4 }
  - { offsetInCU: 0x85D2, offset: 0x87F65, size: 0x8, addend: 0x0, symName: __ZNSt3__120__shared_ptr_pointerIPN5agora3rtc9extension17ExtensionDelegateINS2_14VideoFrameDataEEENS_10shared_ptrIS6_E27__shared_ptr_default_deleteIS6_S6_EENS_9allocatorIS6_EEE21__on_zero_shared_weakEv, symObjAddr: 0xC58, symBinAddr: 0x17D44, symSize: 0x4 }
  - { offsetInCU: 0x85F6, offset: 0x87F89, size: 0x8, addend: 0x0, symName: __ZNSt3__120__shared_ptr_pointerIPN5agora3rtc9extension17ExtensionDelegateINS2_14VideoFrameDataEEENS_10shared_ptrIS6_E27__shared_ptr_default_deleteIS6_S6_EENS_9allocatorIS6_EEE21__on_zero_shared_weakEv, symObjAddr: 0xC58, symBinAddr: 0x17D44, symSize: 0x4 }
  - { offsetInCU: 0x8622, offset: 0x87FB5, size: 0x8, addend: 0x0, symName: __ZNSt3__120__shared_ptr_pointerIPN5agora3rtc9extension17ExtensionDelegateINS2_14VideoFrameDataEEENS_10shared_ptrIS6_E27__shared_ptr_default_deleteIS6_S6_EENS_9allocatorIS6_EEE21__on_zero_shared_weakEv, symObjAddr: 0xC58, symBinAddr: 0x17D44, symSize: 0x4 }
  - { offsetInCU: 0x8649, offset: 0x87FDC, size: 0x8, addend: 0x0, symName: __ZNSt3__120__shared_ptr_pointerIPN5agora3rtc9extension17ExtensionDelegateINS2_14VideoFrameDataEEENS_10shared_ptrIS6_E27__shared_ptr_default_deleteIS6_S6_EENS_9allocatorIS6_EEE21__on_zero_shared_weakEv, symObjAddr: 0xC58, symBinAddr: 0x17D44, symSize: 0x4 }
  - { offsetInCU: 0x26, offset: 0x88071, size: 0x8, addend: 0x0, symName: __ZN5agora3rtc9extension17ExtensionProviderC2Ev, symObjAddr: 0x0, symBinAddr: 0x17D48, symSize: 0x1C }
  - { offsetInCU: 0x5D, offset: 0x880A8, size: 0x8, addend: 0x0, symName: __ZNSt3__1L19piecewise_constructE, symObjAddr: 0x1C77, symBinAddr: 0x92FDB6, symSize: 0x0 }
  - { offsetInCU: 0x5FBA, offset: 0x8E005, size: 0x8, addend: 0x0, symName: __ZNSt3__112__destroy_atB7v160006INS_4pairIKNS_12basic_stringIcNS_11char_traitsIcEENS_9allocatorIcEEEEN5agora3rtc9extension16ExtensionContextEEELi0EEEvPT_, symObjAddr: 0x8D8, symBinAddr: 0x184FC, symSize: 0x54 }
  - { offsetInCU: 0x653A, offset: 0x8E585, size: 0x8, addend: 0x0, symName: __ZNSt3__127__tree_balance_after_insertB7v160006IPNS_16__tree_node_baseIPvEEEEvT_S5_, symObjAddr: 0xB8C, symBinAddr: 0x18704, symSize: 0x198 }
  - { offsetInCU: 0xA1C0, offset: 0x9220B, size: 0x8, addend: 0x0, symName: __ZN5agora3rtc9extension17ExtensionProviderC2Ev, symObjAddr: 0x0, symBinAddr: 0x17D48, symSize: 0x1C }
  - { offsetInCU: 0xA30C, offset: 0x92357, size: 0x8, addend: 0x0, symName: __ZN5agora3rtc9extension17ExtensionProviderD2Ev, symObjAddr: 0x1C, symBinAddr: 0x17D64, symSize: 0x34 }
  - { offsetInCU: 0xA3DA, offset: 0x92425, size: 0x8, addend: 0x0, symName: __ZNSt3__16__treeINS_12__value_typeINS_12basic_stringIcNS_11char_traitsIcEENS_9allocatorIcEEEEN5agora3rtc9extension16ExtensionContextEEENS_19__map_value_compareIS7_SC_NS_4lessIS7_EELb1EEENS5_ISC_EEE7destroyEPNS_11__tree_nodeISC_PvEE, symObjAddr: 0x890, symBinAddr: 0x184B4, symSize: 0x48 }
  - { offsetInCU: 0xA56A, offset: 0x925B5, size: 0x8, addend: 0x0, symName: __ZN5agora3rtc9extension17ExtensionProviderD1Ev, symObjAddr: 0x50, symBinAddr: 0x17D98, symSize: 0x4 }
  - { offsetInCU: 0xA593, offset: 0x925DE, size: 0x8, addend: 0x0, symName: __ZN5agora3rtc9extension17ExtensionProviderD0Ev, symObjAddr: 0x54, symBinAddr: 0x17D9C, symSize: 0x4 }
  - { offsetInCU: 0xA660, offset: 0x926AB, size: 0x8, addend: 0x0, symName: __ZN5agora3rtc9extension17ExtensionProvider19setExtensionControlEPNS0_17IExtensionControlE, symObjAddr: 0x58, symBinAddr: 0x17DA0, symSize: 0x54 }
  - { offsetInCU: 0xAB9D, offset: 0x92BE8, size: 0x8, addend: 0x0, symName: __ZN5agora3rtc9extension17ExtensionProvider19enumerateExtensionsEPNS0_18IExtensionProvider17ExtensionMetaInfoERi, symObjAddr: 0xAC, symBinAddr: 0x17DF4, symSize: 0x230 }
  - { offsetInCU: 0xB8B3, offset: 0x938FE, size: 0x8, addend: 0x0, symName: __ZNSt3__112basic_stringIcNS_11char_traitsIcEENS_9allocatorIcEEE17__assign_externalEPKcm, symObjAddr: 0x744, symBinAddr: 0x18404, symSize: 0xB0 }
  - { offsetInCU: 0xBD49, offset: 0x93D94, size: 0x8, addend: 0x0, symName: __ZNSt3__16__treeINS_12__value_typeINS_12basic_stringIcNS_11char_traitsIcEENS_9allocatorIcEEEEN5agora3rtc9extension16ExtensionContextEEENS_19__map_value_compareIS7_SC_NS_4lessIS7_EELb1EEENS5_ISC_EEE7destroyEPNS_11__tree_nodeISC_PvEE, symObjAddr: 0x890, symBinAddr: 0x184B4, symSize: 0x48 }
  - { offsetInCU: 0xBD73, offset: 0x93DBE, size: 0x8, addend: 0x0, symName: __ZNSt3__16__treeINS_12__value_typeINS_12basic_stringIcNS_11char_traitsIcEENS_9allocatorIcEEEEN5agora3rtc9extension16ExtensionContextEEENS_19__map_value_compareIS7_SC_NS_4lessIS7_EELb1EEENS5_ISC_EEE25__emplace_unique_key_argsIS7_JRKNS_21piecewise_construct_tENS_5tupleIJOS7_EEENSN_IJEEEEEENS_4pairINS_15__tree_iteratorISC_PNS_11__tree_nodeISC_PvEElEEbEERKT_DpOT0_, symObjAddr: 0x92C, symBinAddr: 0x18550, symSize: 0xD0 }
  - { offsetInCU: 0xC277, offset: 0x942C2, size: 0x8, addend: 0x0, symName: __ZN5agora3rtc9extension16ExtensionContextD1Ev, symObjAddr: 0x2DC, symBinAddr: 0x18024, symSize: 0x40 }
  - { offsetInCU: 0xC639, offset: 0x94684, size: 0x8, addend: 0x0, symName: __ZN5agora3rtc9extension17ExtensionProvider17createAudioFilterEPKc, symObjAddr: 0x31C, symBinAddr: 0x18064, symSize: 0x134 }
  - { offsetInCU: 0xCAC0, offset: 0x94B0B, size: 0x8, addend: 0x0, symName: __ZN5agora3rtc9extension17ExtensionProvider17createVideoFilterEPKc, symObjAddr: 0x450, symBinAddr: 0x18198, symSize: 0x134 }
  - { offsetInCU: 0xCF49, offset: 0x94F94, size: 0x8, addend: 0x0, symName: __ZN5agora3rtc9extension17ExtensionProvider15createVideoSinkEPKc, symObjAddr: 0x584, symBinAddr: 0x182CC, symSize: 0x134 }
  - { offsetInCU: 0xD2F5, offset: 0x95340, size: 0x8, addend: 0x0, symName: __ZN5agora3rtc9extension17ExtensionProvider11setPropertyEPKcS4_, symObjAddr: 0x6B8, symBinAddr: 0x18400, symSize: 0x4 }
  - { offsetInCU: 0xDB6A, offset: 0x95BB5, size: 0x8, addend: 0x0, symName: __ZNSt3__16__treeINS_12__value_typeINS_12basic_stringIcNS_11char_traitsIcEENS_9allocatorIcEEEEN5agora3rtc9extension16ExtensionContextEEENS_19__map_value_compareIS7_SC_NS_4lessIS7_EELb1EEENS5_ISC_EEE12__find_equalIS7_EERPNS_16__tree_node_baseIPvEERPNS_15__tree_end_nodeISN_EERKT_, symObjAddr: 0x9FC, symBinAddr: 0x18620, symSize: 0x90 }
  - { offsetInCU: 0xDCEA, offset: 0x95D35, size: 0x8, addend: 0x0, symName: __ZNSt3__16__treeINS_12__value_typeINS_12basic_stringIcNS_11char_traitsIcEENS_9allocatorIcEEEEN5agora3rtc9extension16ExtensionContextEEENS_19__map_value_compareIS7_SC_NS_4lessIS7_EELb1EEENS5_ISC_EEE16__insert_node_atEPNS_15__tree_end_nodeIPNS_16__tree_node_baseIPvEEEERSN_SN_, symObjAddr: 0xA8C, symBinAddr: 0x186B0, symSize: 0x54 }
  - { offsetInCU: 0xDD53, offset: 0x95D9E, size: 0x8, addend: 0x0, symName: __ZNSt3__110unique_ptrINS_11__tree_nodeINS_12__value_typeINS_12basic_stringIcNS_11char_traitsIcEENS_9allocatorIcEEEEN5agora3rtc9extension16ExtensionContextEEEPvEENS_22__tree_node_destructorINS6_ISF_EEEEE5resetB7v160006EPSF_, symObjAddr: 0xD24, symBinAddr: 0x1889C, symSize: 0x44 }
  - { offsetInCU: 0xE116, offset: 0x96161, size: 0x8, addend: 0x0, symName: __ZN5agora16RefCountedObjectINS_3rtc9extension20ExtensionAudioFilterEED1Ev, symObjAddr: 0xD68, symBinAddr: 0x188E0, symSize: 0x4 }
  - { offsetInCU: 0xE138, offset: 0x96183, size: 0x8, addend: 0x0, symName: __ZN5agora16RefCountedObjectINS_3rtc9extension20ExtensionAudioFilterEED1Ev, symObjAddr: 0xD68, symBinAddr: 0x188E0, symSize: 0x4 }
  - { offsetInCU: 0xE16C, offset: 0x961B7, size: 0x8, addend: 0x0, symName: __ZN5agora16RefCountedObjectINS_3rtc9extension20ExtensionAudioFilterEED0Ev, symObjAddr: 0xD6C, symBinAddr: 0x188E4, symSize: 0x14 }
  - { offsetInCU: 0xE1FC, offset: 0x96247, size: 0x8, addend: 0x0, symName: __ZNK5agora16RefCountedObjectINS_3rtc9extension20ExtensionAudioFilterEE6AddRefEv, symObjAddr: 0xD90, symBinAddr: 0x188F8, symSize: 0x18 }
  - { offsetInCU: 0xE27D, offset: 0x962C8, size: 0x8, addend: 0x0, symName: __ZNK5agora16RefCountedObjectINS_3rtc9extension20ExtensionAudioFilterEE7ReleaseEv, symObjAddr: 0xDA8, symBinAddr: 0x18910, symSize: 0x4C }
  - { offsetInCU: 0xE314, offset: 0x9635F, size: 0x8, addend: 0x0, symName: __ZNK5agora16RefCountedObjectINS_3rtc9extension20ExtensionAudioFilterEE9HasOneRefEv, symObjAddr: 0xDF4, symBinAddr: 0x1895C, symSize: 0x14 }
  - { offsetInCU: 0xE38B, offset: 0x963D6, size: 0x8, addend: 0x0, symName: __ZThn48_NK5agora16RefCountedObjectINS_3rtc9extension20ExtensionAudioFilterEE6AddRefEv, symObjAddr: 0xE08, symBinAddr: 0x18970, symSize: 0x18 }
  - { offsetInCU: 0xE3A5, offset: 0x963F0, size: 0x8, addend: 0x0, symName: __ZThn48_NK5agora16RefCountedObjectINS_3rtc9extension20ExtensionAudioFilterEE6AddRefEv, symObjAddr: 0xE08, symBinAddr: 0x18970, symSize: 0x18 }
  - { offsetInCU: 0xE41E, offset: 0x96469, size: 0x8, addend: 0x0, symName: __ZThn48_NK5agora16RefCountedObjectINS_3rtc9extension20ExtensionAudioFilterEE7ReleaseEv, symObjAddr: 0xE20, symBinAddr: 0x18988, symSize: 0x44 }
  - { offsetInCU: 0xE4A6, offset: 0x964F1, size: 0x8, addend: 0x0, symName: __ZThn48_NK5agora16RefCountedObjectINS_3rtc9extension20ExtensionAudioFilterEE9HasOneRefEv, symObjAddr: 0xE64, symBinAddr: 0x189CC, symSize: 0x14 }
  - { offsetInCU: 0xE4C0, offset: 0x9650B, size: 0x8, addend: 0x0, symName: __ZThn48_NK5agora16RefCountedObjectINS_3rtc9extension20ExtensionAudioFilterEE9HasOneRefEv, symObjAddr: 0xE64, symBinAddr: 0x189CC, symSize: 0x14 }
  - { offsetInCU: 0xE515, offset: 0x96560, size: 0x8, addend: 0x0, symName: __ZThn48_N5agora16RefCountedObjectINS_3rtc9extension20ExtensionAudioFilterEED1Ev, symObjAddr: 0xE78, symBinAddr: 0x189E0, symSize: 0x8 }
  - { offsetInCU: 0xE57E, offset: 0x965C9, size: 0x8, addend: 0x0, symName: __ZThn48_N5agora16RefCountedObjectINS_3rtc9extension20ExtensionAudioFilterEED0Ev, symObjAddr: 0xE80, symBinAddr: 0x189E8, symSize: 0x18 }
  - { offsetInCU: 0xE603, offset: 0x9664E, size: 0x8, addend: 0x0, symName: __ZN5agora16RefCountedObjectINS_3rtc9extension20ExtensionVideoFilterEED1Ev, symObjAddr: 0x1030, symBinAddr: 0x18A00, symSize: 0x4 }
  - { offsetInCU: 0xE625, offset: 0x96670, size: 0x8, addend: 0x0, symName: __ZN5agora16RefCountedObjectINS_3rtc9extension20ExtensionVideoFilterEED1Ev, symObjAddr: 0x1030, symBinAddr: 0x18A00, symSize: 0x4 }
  - { offsetInCU: 0xE659, offset: 0x966A4, size: 0x8, addend: 0x0, symName: __ZN5agora16RefCountedObjectINS_3rtc9extension20ExtensionVideoFilterEED0Ev, symObjAddr: 0x1034, symBinAddr: 0x18A04, symSize: 0x14 }
  - { offsetInCU: 0xE6B1, offset: 0x966FC, size: 0x8, addend: 0x0, symName: __ZNK5agora16RefCountedObjectINS_3rtc9extension20ExtensionVideoFilterEE6AddRefEv, symObjAddr: 0x1074, symBinAddr: 0x18A18, symSize: 0x18 }
  - { offsetInCU: 0xE709, offset: 0x96754, size: 0x8, addend: 0x0, symName: __ZNK5agora16RefCountedObjectINS_3rtc9extension20ExtensionVideoFilterEE7ReleaseEv, symObjAddr: 0x108C, symBinAddr: 0x18A30, symSize: 0x4C }
  - { offsetInCU: 0xE772, offset: 0x967BD, size: 0x8, addend: 0x0, symName: __ZNK5agora16RefCountedObjectINS_3rtc9extension20ExtensionVideoFilterEE9HasOneRefEv, symObjAddr: 0x10D8, symBinAddr: 0x18A7C, symSize: 0x14 }
  - { offsetInCU: 0xE7E9, offset: 0x96834, size: 0x8, addend: 0x0, symName: __ZThn48_NK5agora16RefCountedObjectINS_3rtc9extension20ExtensionVideoFilterEE6AddRefEv, symObjAddr: 0x10EC, symBinAddr: 0x18A90, symSize: 0x18 }
  - { offsetInCU: 0xE803, offset: 0x9684E, size: 0x8, addend: 0x0, symName: __ZThn48_NK5agora16RefCountedObjectINS_3rtc9extension20ExtensionVideoFilterEE6AddRefEv, symObjAddr: 0x10EC, symBinAddr: 0x18A90, symSize: 0x18 }
  - { offsetInCU: 0xE877, offset: 0x968C2, size: 0x8, addend: 0x0, symName: __ZThn48_NK5agora16RefCountedObjectINS_3rtc9extension20ExtensionVideoFilterEE7ReleaseEv, symObjAddr: 0x1104, symBinAddr: 0x18AA8, symSize: 0x44 }
  - { offsetInCU: 0xE8FF, offset: 0x9694A, size: 0x8, addend: 0x0, symName: __ZThn48_NK5agora16RefCountedObjectINS_3rtc9extension20ExtensionVideoFilterEE9HasOneRefEv, symObjAddr: 0x1148, symBinAddr: 0x18AEC, symSize: 0x14 }
  - { offsetInCU: 0xE919, offset: 0x96964, size: 0x8, addend: 0x0, symName: __ZThn48_NK5agora16RefCountedObjectINS_3rtc9extension20ExtensionVideoFilterEE9HasOneRefEv, symObjAddr: 0x1148, symBinAddr: 0x18AEC, symSize: 0x14 }
  - { offsetInCU: 0xE96E, offset: 0x969B9, size: 0x8, addend: 0x0, symName: __ZThn48_N5agora16RefCountedObjectINS_3rtc9extension20ExtensionVideoFilterEED1Ev, symObjAddr: 0x115C, symBinAddr: 0x18B00, symSize: 0x8 }
  - { offsetInCU: 0xE9D7, offset: 0x96A22, size: 0x8, addend: 0x0, symName: __ZThn48_N5agora16RefCountedObjectINS_3rtc9extension20ExtensionVideoFilterEED0Ev, symObjAddr: 0x1164, symBinAddr: 0x18B08, symSize: 0x18 }
  - { offsetInCU: 0xEA5C, offset: 0x96AA7, size: 0x8, addend: 0x0, symName: __ZN5agora16RefCountedObjectINS_3rtc9extension18ExtensionVideoSinkEED1Ev, symObjAddr: 0x12DC, symBinAddr: 0x18B20, symSize: 0x4 }
  - { offsetInCU: 0xEA7E, offset: 0x96AC9, size: 0x8, addend: 0x0, symName: __ZN5agora16RefCountedObjectINS_3rtc9extension18ExtensionVideoSinkEED1Ev, symObjAddr: 0x12DC, symBinAddr: 0x18B20, symSize: 0x4 }
  - { offsetInCU: 0xEAB2, offset: 0x96AFD, size: 0x8, addend: 0x0, symName: __ZN5agora16RefCountedObjectINS_3rtc9extension18ExtensionVideoSinkEED0Ev, symObjAddr: 0x12E0, symBinAddr: 0x18B24, symSize: 0x14 }
  - { offsetInCU: 0xEB0A, offset: 0x96B55, size: 0x8, addend: 0x0, symName: __ZNK5agora16RefCountedObjectINS_3rtc9extension18ExtensionVideoSinkEE6AddRefEv, symObjAddr: 0x1320, symBinAddr: 0x18B38, symSize: 0x18 }
  - { offsetInCU: 0xEB62, offset: 0x96BAD, size: 0x8, addend: 0x0, symName: __ZNK5agora16RefCountedObjectINS_3rtc9extension18ExtensionVideoSinkEE7ReleaseEv, symObjAddr: 0x1338, symBinAddr: 0x18B50, symSize: 0x4C }
  - { offsetInCU: 0xEBCB, offset: 0x96C16, size: 0x8, addend: 0x0, symName: __ZNK5agora16RefCountedObjectINS_3rtc9extension18ExtensionVideoSinkEE9HasOneRefEv, symObjAddr: 0x1384, symBinAddr: 0x18B9C, symSize: 0x14 }
  - { offsetInCU: 0xEC42, offset: 0x96C8D, size: 0x8, addend: 0x0, symName: __ZThn48_NK5agora16RefCountedObjectINS_3rtc9extension18ExtensionVideoSinkEE6AddRefEv, symObjAddr: 0x1398, symBinAddr: 0x18BB0, symSize: 0x18 }
  - { offsetInCU: 0xEC5C, offset: 0x96CA7, size: 0x8, addend: 0x0, symName: __ZThn48_NK5agora16RefCountedObjectINS_3rtc9extension18ExtensionVideoSinkEE6AddRefEv, symObjAddr: 0x1398, symBinAddr: 0x18BB0, symSize: 0x18 }
  - { offsetInCU: 0xECD0, offset: 0x96D1B, size: 0x8, addend: 0x0, symName: __ZThn48_NK5agora16RefCountedObjectINS_3rtc9extension18ExtensionVideoSinkEE7ReleaseEv, symObjAddr: 0x13B0, symBinAddr: 0x18BC8, symSize: 0x44 }
  - { offsetInCU: 0xED58, offset: 0x96DA3, size: 0x8, addend: 0x0, symName: __ZThn48_NK5agora16RefCountedObjectINS_3rtc9extension18ExtensionVideoSinkEE9HasOneRefEv, symObjAddr: 0x13F4, symBinAddr: 0x18C0C, symSize: 0x14 }
  - { offsetInCU: 0xED72, offset: 0x96DBD, size: 0x8, addend: 0x0, symName: __ZThn48_NK5agora16RefCountedObjectINS_3rtc9extension18ExtensionVideoSinkEE9HasOneRefEv, symObjAddr: 0x13F4, symBinAddr: 0x18C0C, symSize: 0x14 }
  - { offsetInCU: 0xEDC7, offset: 0x96E12, size: 0x8, addend: 0x0, symName: __ZThn48_N5agora16RefCountedObjectINS_3rtc9extension18ExtensionVideoSinkEED1Ev, symObjAddr: 0x1408, symBinAddr: 0x18C20, symSize: 0x8 }
  - { offsetInCU: 0xEE30, offset: 0x96E7B, size: 0x8, addend: 0x0, symName: __ZThn48_N5agora16RefCountedObjectINS_3rtc9extension18ExtensionVideoSinkEED0Ev, symObjAddr: 0x1410, symBinAddr: 0x18C28, symSize: 0x18 }
  - { offsetInCU: 0x26, offset: 0x96F10, size: 0x8, addend: 0x0, symName: __ZN5agora3rtc9extension9TimeUtils17CurrentTimeMillisEv, symObjAddr: 0x0, symBinAddr: 0x18C40, symSize: 0x58 }
  - { offsetInCU: 0x10F1, offset: 0x97FDB, size: 0x8, addend: 0x0, symName: __ZN5agora3rtc9extension9TimeUtils17CurrentTimeMillisEv, symObjAddr: 0x0, symBinAddr: 0x18C40, symSize: 0x58 }
  - { offsetInCU: 0x1184, offset: 0x9806E, size: 0x8, addend: 0x0, symName: __ZN5agora3rtc9extension9TimeUtils8NanoTimeEv, symObjAddr: 0x58, symBinAddr: 0x18C98, symSize: 0x38 }
  - { offsetInCU: 0xBD9, offset: 0x98CA7, size: 0x8, addend: 0x0, symName: __ZN9rapidjson8internal8DigitGenERKNS0_5DiyFpES3_yPcPiS5_, symObjAddr: 0x38F4, symBinAddr: 0x1C494, symSize: 0x390 }
  - { offsetInCU: 0xBFF, offset: 0x98CCD, size: 0x8, addend: 0x0, symName: __ZZN9rapidjson8internal8DigitGenERKNS0_5DiyFpES3_yPcPiS5_E6kPow10, symObjAddr: 0x9AD8, symBinAddr: 0x9303B8, symSize: 0x0 }
  - { offsetInCU: 0x1215, offset: 0x992E3, size: 0x8, addend: 0x0, symName: __ZN9rapidjson8internal6u32toaEjPc, symObjAddr: 0x3CC4, symBinAddr: 0x1C864, symSize: 0x2D4 }
  - { offsetInCU: 0x135A, offset: 0x99428, size: 0x8, addend: 0x0, symName: __ZN9rapidjson8internal6u64toaEyPc, symObjAddr: 0x3F98, symBinAddr: 0x1CB38, symSize: 0x640 }
  - { offsetInCU: 0x139B, offset: 0x99469, size: 0x8, addend: 0x0, symName: __ZN9rapidjson8internal6u64toaEyPc, symObjAddr: 0x3F98, symBinAddr: 0x1CB38, symSize: 0x640 }
  - { offsetInCU: 0x1703, offset: 0x997D1, size: 0x8, addend: 0x0, symName: __ZN9rapidjson15GenericDocumentINS_4UTF8IcEENS_19MemoryPoolAllocatorINS_12CrtAllocatorEEES4_EC2EPS5_mPS4_, symObjAddr: 0x45D8, symBinAddr: 0x1D178, symSize: 0x94 }
  - { offsetInCU: 0x1763, offset: 0x99831, size: 0x8, addend: 0x0, symName: __ZN9rapidjson8internal6Grisu2EdPcPiS2_, symObjAddr: 0x3440, symBinAddr: 0x1BFE0, symSize: 0x198 }
  - { offsetInCU: 0x1A2D, offset: 0x99AFB, size: 0x8, addend: 0x0, symName: __ZN9rapidjson8internal8PrettifyEPciii, symObjAddr: 0x35D8, symBinAddr: 0x1C178, symSize: 0x28C }
  - { offsetInCU: 0x1A37, offset: 0x99B05, size: 0x8, addend: 0x0, symName: __ZN9rapidjson8internal8PrettifyEPciii, symObjAddr: 0x35D8, symBinAddr: 0x1C178, symSize: 0x28C }
  - { offsetInCU: 0x4566, offset: 0x9C634, size: 0x8, addend: 0x0, symName: __ZN9rapidjson16GenericStringRefIcE11emptyStringE, symObjAddr: 0xAB57, symBinAddr: 0x931437, symSize: 0x0 }
  - { offsetInCU: 0x4D90, offset: 0x9CE5E, size: 0x8, addend: 0x0, symName: __ZN9rapidjson6WriterINS_19GenericStringBufferINS_4UTF8IcEENS_12CrtAllocatorEEES3_S3_S4_Lj0EE11WriteStringEPKcj, symObjAddr: 0x31C8, symBinAddr: 0x1BD68, symSize: 0x154 }
  - { offsetInCU: 0x4DB5, offset: 0x9CE83, size: 0x8, addend: 0x0, symName: __ZZN9rapidjson6WriterINS_19GenericStringBufferINS_4UTF8IcEENS_12CrtAllocatorEEES3_S3_S4_Lj0EE11WriteStringEPKcjE9hexDigits, symObjAddr: 0x965D, symBinAddr: 0x92FF3D, symSize: 0x0 }
  - { offsetInCU: 0x4DCC, offset: 0x9CE9A, size: 0x8, addend: 0x0, symName: __ZZN9rapidjson6WriterINS_19GenericStringBufferINS_4UTF8IcEENS_12CrtAllocatorEEES3_S3_S4_Lj0EE11WriteStringEPKcjE6escape, symObjAddr: 0x966D, symBinAddr: 0x92FF4D, symSize: 0x0 }
  - { offsetInCU: 0x53D9, offset: 0x9D4A7, size: 0x8, addend: 0x0, symName: __ZNSt3__1L19piecewise_constructE, symObjAddr: 0x9C40, symBinAddr: 0x930520, symSize: 0x0 }
  - { offsetInCU: 0x1941F, offset: 0xB14ED, size: 0x8, addend: 0x0, symName: __ZNSt3__112__destroy_atB7v160006INS_4pairIKNS_12basic_stringIcNS_11char_traitsIcEENS_9allocatorIcEEEENS_8functionIFiRKN9rapidjson15GenericDocumentINSA_4UTF8IcEENSA_19MemoryPoolAllocatorINSA_12CrtAllocatorEEESF_EEEEEEELi0EEEvPT_, symObjAddr: 0x28DC, symBinAddr: 0x1B47C, symSize: 0x64 }
  - { offsetInCU: 0x1DC0F, offset: 0xB5CDD, size: 0x8, addend: 0x0, symName: __ZN9rapidjson12GenericValueINS_4UTF8IcEENS_19MemoryPoolAllocatorINS_12CrtAllocatorEEEEixIS5_EERS6_RKNS0_IS2_T_EE, symObjAddr: 0x59EC, symBinAddr: 0x1DFC8, symSize: 0x60 }
  - { offsetInCU: 0x1DD0A, offset: 0xB5DD8, size: 0x8, addend: 0x0, symName: '__ZNSt3__110__function6__funcIZN5agora3rtc9extension26SenseTimeExtensionDelegateC1EvE3$_3NS_9allocatorIS6_EEFiRKN9rapidjson15GenericDocumentINS9_4UTF8IcEENS9_19MemoryPoolAllocatorINS9_12CrtAllocatorEEESE_EEEED1Ev', symObjAddr: 0x5A4C, symBinAddr: 0x1E028, symSize: 0x4 }
  - { offsetInCU: 0x1DD65, offset: 0xB5E33, size: 0x8, addend: 0x0, symName: __ZN9rapidjson13GenericReaderINS_4UTF8IcEES2_NS_12CrtAllocatorEE19ParseStringToStreamILj0ES2_S2_NS_19GenericStringStreamIS2_EENS4_11StackStreamIcEEEEvRT2_RT3_, symObjAddr: 0x7AE4, symBinAddr: 0x200C0, symSize: 0x214 }
  - { offsetInCU: 0x1DD8A, offset: 0xB5E58, size: 0x8, addend: 0x0, symName: __ZZN9rapidjson13GenericReaderINS_4UTF8IcEES2_NS_12CrtAllocatorEE19ParseStringToStreamILj0ES2_S2_NS_19GenericStringStreamIS2_EENS4_11StackStreamIcEEEEvRT2_RT3_E6escape, symObjAddr: 0xAA57, symBinAddr: 0x931337, symSize: 0x0 }
  - { offsetInCU: 0x1E234, offset: 0xB6302, size: 0x8, addend: 0x0, symName: __ZN9rapidjson13GenericReaderINS_4UTF8IcEES2_NS_12CrtAllocatorEE11StackStreamIcE3PopEv, symObjAddr: 0x7CF8, symBinAddr: 0x202D4, symSize: 0x34 }
  - { offsetInCU: 0x1E9A4, offset: 0xB6A72, size: 0x8, addend: 0x0, symName: __ZN5agora3rtc9extension12ToJsonStringERKN9rapidjson12GenericValueINS2_4UTF8IcEENS2_19MemoryPoolAllocatorINS2_12CrtAllocatorEEEEE, symObjAddr: 0x0, symBinAddr: 0x18CD0, symSize: 0xC0 }
  - { offsetInCU: 0x1EE2C, offset: 0xB6EFA, size: 0x8, addend: 0x0, symName: __ZN5agora3rtc9extension21SendHumanDetectResultER24st_mobile_human_action_t, symObjAddr: 0x3FC, symBinAddr: 0x190CC, symSize: 0x37C }
  - { offsetInCU: 0x1FC63, offset: 0xB7D31, size: 0x8, addend: 0x0, symName: __ZN5agora3rtc9extension14YUV420_To_RGBAEPhS2_S2_S2_ii, symObjAddr: 0x778, symBinAddr: 0x19448, symSize: 0x1D8 }
  - { offsetInCU: 0x21F18, offset: 0xB9FE6, size: 0x8, addend: 0x0, symName: __ZN5agora3rtc9extension26SenseTimeExtensionDelegateC1Ev, symObjAddr: 0x1CF4, symBinAddr: 0x1A9C4, symSize: 0x4 }
  - { offsetInCU: 0x22196, offset: 0xBA264, size: 0x8, addend: 0x0, symName: __ZN5agora3rtc9extension26SenseTimeExtensionDelegateC1Ev, symObjAddr: 0x1CF4, symBinAddr: 0x1A9C4, symSize: 0x4 }
  - { offsetInCU: 0x25825, offset: 0xBD8F3, size: 0x8, addend: 0x0, symName: __ZNK9rapidjson12GenericValueINS_4UTF8IcEENS_19MemoryPoolAllocatorINS_12CrtAllocatorEEEE6AcceptINS_6WriterINS_19GenericStringBufferIS2_S4_EES2_S2_S4_Lj0EEEEEbRT_, symObjAddr: 0xC0, symBinAddr: 0x18D90, symSize: 0x2FC }
  - { offsetInCU: 0x25D3C, offset: 0xBDE0A, size: 0x8, addend: 0x0, symName: __ZNK9rapidjson19GenericStringBufferINS_4UTF8IcEENS_12CrtAllocatorEE9GetStringEv, symObjAddr: 0x3BC, symBinAddr: 0x1908C, symSize: 0x40 }
  - { offsetInCU: 0x25D4F, offset: 0xBDE1D, size: 0x8, addend: 0x0, symName: __ZNK9rapidjson19GenericStringBufferINS_4UTF8IcEENS_12CrtAllocatorEE9GetStringEv, symObjAddr: 0x3BC, symBinAddr: 0x1908C, symSize: 0x40 }
  - { offsetInCU: 0x25DCC, offset: 0xBDE9A, size: 0x8, addend: 0x0, symName: __ZN5agora3rtc9extension21SendHumanDetectResultER24st_mobile_human_action_t, symObjAddr: 0x3FC, symBinAddr: 0x190CC, symSize: 0x37C }
  - { offsetInCU: 0x25FF6, offset: 0xBE0C4, size: 0x8, addend: 0x0, symName: __ZN9rapidjson8internal5StackINS_12CrtAllocatorEE7DestroyEv, symObjAddr: 0x27F8, symBinAddr: 0x1B398, symSize: 0x38 }
  - { offsetInCU: 0x261CA, offset: 0xBE298, size: 0x8, addend: 0x0, symName: __ZN9rapidjson6WriterINS_19GenericStringBufferINS_4UTF8IcEENS_12CrtAllocatorEEES3_S3_S4_Lj0EE6PrefixENS_4TypeE, symObjAddr: 0x2D60, symBinAddr: 0x1B900, symSize: 0xB0 }
  - { offsetInCU: 0x26282, offset: 0xBE350, size: 0x8, addend: 0x0, symName: __ZN9rapidjson6WriterINS_19GenericStringBufferINS_4UTF8IcEENS_12CrtAllocatorEEES3_S3_S4_Lj0EE9WriteNullEv, symObjAddr: 0x2E10, symBinAddr: 0x1B9B0, symSize: 0x8C }
  - { offsetInCU: 0x2628C, offset: 0xBE35A, size: 0x8, addend: 0x0, symName: __ZN9rapidjson6WriterINS_19GenericStringBufferINS_4UTF8IcEENS_12CrtAllocatorEEES3_S3_S4_Lj0EE9WriteNullEv, symObjAddr: 0x2E10, symBinAddr: 0x1B9B0, symSize: 0x8C }
  - { offsetInCU: 0x264A1, offset: 0xBE56F, size: 0x8, addend: 0x0, symName: __ZN9rapidjson6WriterINS_19GenericStringBufferINS_4UTF8IcEENS_12CrtAllocatorEEES3_S3_S4_Lj0EE9WriteBoolEb, symObjAddr: 0x2FEC, symBinAddr: 0x1BB8C, symSize: 0xE0 }
  - { offsetInCU: 0x26668, offset: 0xBE736, size: 0x8, addend: 0x0, symName: __ZN9rapidjson6WriterINS_19GenericStringBufferINS_4UTF8IcEENS_12CrtAllocatorEEES3_S3_S4_Lj0EE11StartObjectEv, symObjAddr: 0x2940, symBinAddr: 0x1B4E0, symSize: 0x50 }
  - { offsetInCU: 0x26761, offset: 0xBE82F, size: 0x8, addend: 0x0, symName: __ZNK9rapidjson12GenericValueINS_4UTF8IcEENS_19MemoryPoolAllocatorINS_12CrtAllocatorEEEE9GetStringEv, symObjAddr: 0x2990, symBinAddr: 0x1B530, symSize: 0x28 }
  - { offsetInCU: 0x267C7, offset: 0xBE895, size: 0x8, addend: 0x0, symName: __ZNK9rapidjson12GenericValueINS_4UTF8IcEENS_19MemoryPoolAllocatorINS_12CrtAllocatorEEEE15GetStringLengthEv, symObjAddr: 0x29B8, symBinAddr: 0x1B558, symSize: 0x34 }
  - { offsetInCU: 0x267D1, offset: 0xBE89F, size: 0x8, addend: 0x0, symName: __ZNK9rapidjson12GenericValueINS_4UTF8IcEENS_19MemoryPoolAllocatorINS_12CrtAllocatorEEEE15GetStringLengthEv, symObjAddr: 0x29B8, symBinAddr: 0x1B558, symSize: 0x34 }
  - { offsetInCU: 0x26837, offset: 0xBE905, size: 0x8, addend: 0x0, symName: __ZN9rapidjson6WriterINS_19GenericStringBufferINS_4UTF8IcEENS_12CrtAllocatorEEES3_S3_S4_Lj0EE9EndObjectEj, symObjAddr: 0x29EC, symBinAddr: 0x1B58C, symSize: 0x58 }
  - { offsetInCU: 0x26841, offset: 0xBE90F, size: 0x8, addend: 0x0, symName: __ZN9rapidjson6WriterINS_19GenericStringBufferINS_4UTF8IcEENS_12CrtAllocatorEEES3_S3_S4_Lj0EE6StringEPKcjb, symObjAddr: 0x2AE8, symBinAddr: 0x1B688, symSize: 0x48 }
  - { offsetInCU: 0x268CF, offset: 0xBE99D, size: 0x8, addend: 0x0, symName: __ZN9rapidjson6WriterINS_19GenericStringBufferINS_4UTF8IcEENS_12CrtAllocatorEEES3_S3_S4_Lj0EE3IntEi, symObjAddr: 0x2B30, symBinAddr: 0x1B6D0, symSize: 0x9C }
  - { offsetInCU: 0x268DA, offset: 0xBE9A8, size: 0x8, addend: 0x0, symName: __ZNK9rapidjson12GenericValueINS_4UTF8IcEENS_19MemoryPoolAllocatorINS_12CrtAllocatorEEEE6AcceptINS_6WriterINS_19GenericStringBufferIS2_S4_EES2_S2_S4_Lj0EEEEEbRT_.cold.3, symObjAddr: 0x8494, symBinAddr: 0x92AD04, symSize: 0x28 }
  - { offsetInCU: 0x26908, offset: 0xBE9D6, size: 0x8, addend: 0x0, symName: __ZN9rapidjson6WriterINS_19GenericStringBufferINS_4UTF8IcEENS_12CrtAllocatorEEES3_S3_S4_Lj0EE10StartArrayEv, symObjAddr: 0x2A44, symBinAddr: 0x1B5E4, symSize: 0x54 }
  - { offsetInCU: 0x26A02, offset: 0xBEAD0, size: 0x8, addend: 0x0, symName: __ZNK9rapidjson12GenericValueINS_4UTF8IcEENS_19MemoryPoolAllocatorINS_12CrtAllocatorEEEE6AcceptINS_6WriterINS_19GenericStringBufferIS2_S4_EES2_S2_S4_Lj0EEEEEbRT_.cold.5, symObjAddr: 0x84E4, symBinAddr: 0x92AD54, symSize: 0x28 }
  - { offsetInCU: 0x26A47, offset: 0xBEB15, size: 0x8, addend: 0x0, symName: __ZN9rapidjson6WriterINS_19GenericStringBufferINS_4UTF8IcEENS_12CrtAllocatorEEES3_S3_S4_Lj0EE6Uint64Ey, symObjAddr: 0x2CE4, symBinAddr: 0x1B884, symSize: 0x7C }
  - { offsetInCU: 0x26B76, offset: 0xBEC44, size: 0x8, addend: 0x0, symName: __ZN9rapidjson6WriterINS_19GenericStringBufferINS_4UTF8IcEENS_12CrtAllocatorEEES3_S3_S4_Lj0EE6PrefixENS_4TypeE, symObjAddr: 0x2D60, symBinAddr: 0x1B900, symSize: 0xB0 }
  - { offsetInCU: 0x26B80, offset: 0xBEC4E, size: 0x8, addend: 0x0, symName: __ZN9rapidjson6WriterINS_19GenericStringBufferINS_4UTF8IcEENS_12CrtAllocatorEEES3_S3_S4_Lj0EE8EndArrayEj, symObjAddr: 0x2A98, symBinAddr: 0x1B638, symSize: 0x50 }
  - { offsetInCU: 0x26C80, offset: 0xBED4E, size: 0x8, addend: 0x0, symName: __ZN9rapidjson6WriterINS_19GenericStringBufferINS_4UTF8IcEENS_12CrtAllocatorEEES3_S3_S4_Lj0EE6StringEPKcjb, symObjAddr: 0x2AE8, symBinAddr: 0x1B688, symSize: 0x48 }
  - { offsetInCU: 0x26C8A, offset: 0xBED58, size: 0x8, addend: 0x0, symName: __ZN9rapidjson6WriterINS_19GenericStringBufferINS_4UTF8IcEENS_12CrtAllocatorEEES3_S3_S4_Lj0EE9EndObjectEj, symObjAddr: 0x29EC, symBinAddr: 0x1B58C, symSize: 0x58 }
  - { offsetInCU: 0x26D79, offset: 0xBEE47, size: 0x8, addend: 0x0, symName: __ZN9rapidjson6WriterINS_19GenericStringBufferINS_4UTF8IcEENS_12CrtAllocatorEEES3_S3_S4_Lj0EE10StartArrayEv, symObjAddr: 0x2A44, symBinAddr: 0x1B5E4, symSize: 0x54 }
  - { offsetInCU: 0x26D83, offset: 0xBEE51, size: 0x8, addend: 0x0, symName: __ZN9rapidjson6WriterINS_19GenericStringBufferINS_4UTF8IcEENS_12CrtAllocatorEEES3_S3_S4_Lj0EE11WriteDoubleEd, symObjAddr: 0x331C, symBinAddr: 0x1BEBC, symSize: 0x124 }
  - { offsetInCU: 0x26F2C, offset: 0xBEFFA, size: 0x8, addend: 0x0, symName: __ZN9rapidjson8internal6Grisu2EdPcPiS2_, symObjAddr: 0x3440, symBinAddr: 0x1BFE0, symSize: 0x198 }
  - { offsetInCU: 0x26F36, offset: 0xBF004, size: 0x8, addend: 0x0, symName: __ZN9rapidjson6WriterINS_19GenericStringBufferINS_4UTF8IcEENS_12CrtAllocatorEEES3_S3_S4_Lj0EE3IntEi, symObjAddr: 0x2B30, symBinAddr: 0x1B6D0, symSize: 0x9C }
  - { offsetInCU: 0x2708B, offset: 0xBF159, size: 0x8, addend: 0x0, symName: __ZN9rapidjson6WriterINS_19GenericStringBufferINS_4UTF8IcEENS_12CrtAllocatorEEES3_S3_S4_Lj0EE4UintEj, symObjAddr: 0x2BCC, symBinAddr: 0x1B76C, symSize: 0x7C }
  - { offsetInCU: 0x27095, offset: 0xBF163, size: 0x8, addend: 0x0, symName: __ZN9rapidjson6WriterINS_19GenericStringBufferINS_4UTF8IcEENS_12CrtAllocatorEEES3_S3_S4_Lj0EE4UintEj, symObjAddr: 0x2BCC, symBinAddr: 0x1B76C, symSize: 0x7C }
  - { offsetInCU: 0x271C4, offset: 0xBF292, size: 0x8, addend: 0x0, symName: __ZN9rapidjson6WriterINS_19GenericStringBufferINS_4UTF8IcEENS_12CrtAllocatorEEES3_S3_S4_Lj0EE5Int64Ex, symObjAddr: 0x2C48, symBinAddr: 0x1B7E8, symSize: 0x9C }
  - { offsetInCU: 0x271CE, offset: 0xBF29C, size: 0x8, addend: 0x0, symName: __ZN9rapidjson6WriterINS_19GenericStringBufferINS_4UTF8IcEENS_12CrtAllocatorEEES3_S3_S4_Lj0EE5Int64Ex, symObjAddr: 0x2C48, symBinAddr: 0x1B7E8, symSize: 0x9C }
  - { offsetInCU: 0x27323, offset: 0xBF3F1, size: 0x8, addend: 0x0, symName: __ZN9rapidjson6WriterINS_19GenericStringBufferINS_4UTF8IcEENS_12CrtAllocatorEEES3_S3_S4_Lj0EE6Uint64Ey, symObjAddr: 0x2CE4, symBinAddr: 0x1B884, symSize: 0x7C }
  - { offsetInCU: 0x2732E, offset: 0xBF3FC, size: 0x8, addend: 0x0, symName: __ZNK9rapidjson12GenericValueINS_4UTF8IcEENS_19MemoryPoolAllocatorINS_12CrtAllocatorEEEE6AcceptINS_6WriterINS_19GenericStringBufferIS2_S4_EES2_S2_S4_Lj0EEEEEbRT_.cold.2, symObjAddr: 0x846C, symBinAddr: 0x92ACDC, symSize: 0x28 }
  - { offsetInCU: 0x27346, offset: 0xBF414, size: 0x8, addend: 0x0, symName: __ZNK9rapidjson12GenericValueINS_4UTF8IcEENS_19MemoryPoolAllocatorINS_12CrtAllocatorEEEE6AcceptINS_6WriterINS_19GenericStringBufferIS2_S4_EES2_S2_S4_Lj0EEEEEbRT_.cold.1, symObjAddr: 0x8444, symBinAddr: 0x92ACB4, symSize: 0x28 }
  - { offsetInCU: 0x2735E, offset: 0xBF42C, size: 0x8, addend: 0x0, symName: __ZNK9rapidjson12GenericValueINS_4UTF8IcEENS_19MemoryPoolAllocatorINS_12CrtAllocatorEEEE6AcceptINS_6WriterINS_19GenericStringBufferIS2_S4_EES2_S2_S4_Lj0EEEEEbRT_.cold.4, symObjAddr: 0x84BC, symBinAddr: 0x92AD2C, symSize: 0x28 }
  - { offsetInCU: 0x2738D, offset: 0xBF45B, size: 0x8, addend: 0x0, symName: __ZNK9rapidjson12GenericValueINS_4UTF8IcEENS_19MemoryPoolAllocatorINS_12CrtAllocatorEEEE6AcceptINS_6WriterINS_19GenericStringBufferIS2_S4_EES2_S2_S4_Lj0EEEEEbRT_.cold.6, symObjAddr: 0x850C, symBinAddr: 0x92AD7C, symSize: 0x28 }
  - { offsetInCU: 0x27417, offset: 0xBF4E5, size: 0x8, addend: 0x0, symName: __ZN9rapidjson8internal5StackINS_12CrtAllocatorEE4PushIcEEPT_m, symObjAddr: 0x2E9C, symBinAddr: 0x1BA3C, symSize: 0x48 }
  - { offsetInCU: 0x274AC, offset: 0xBF57A, size: 0x8, addend: 0x0, symName: __ZNK9rapidjson19GenericStringBufferINS_4UTF8IcEENS_12CrtAllocatorEE9GetStringEv.cold.1, symObjAddr: 0x8534, symBinAddr: 0x92ADA4, symSize: 0x24 }
  - { offsetInCU: 0x27821, offset: 0xBF8EF, size: 0x8, addend: 0x0, symName: __ZN9rapidjson15GenericDocumentINS_4UTF8IcEENS_19MemoryPoolAllocatorINS_12CrtAllocatorEEES4_EC2EPS5_mPS4_, symObjAddr: 0x45D8, symBinAddr: 0x1D178, symSize: 0x94 }
  - { offsetInCU: 0x279CD, offset: 0xBFA9B, size: 0x8, addend: 0x0, symName: __ZN9rapidjson12GenericValueINS_4UTF8IcEENS_19MemoryPoolAllocatorINS_12CrtAllocatorEEEE9AddMemberERS6_S7_RS5_, symObjAddr: 0x481C, symBinAddr: 0x1D3BC, symSize: 0x40 }
  - { offsetInCU: 0x27A80, offset: 0xBFB4E, size: 0x8, addend: 0x0, symName: __ZN9rapidjson12GenericValueINS_4UTF8IcEENS_19MemoryPoolAllocatorINS_12CrtAllocatorEEEE11DoAddMemberERS6_S7_RS5_, symObjAddr: 0x485C, symBinAddr: 0x1D3FC, symSize: 0xC0 }
  - { offsetInCU: 0x27A97, offset: 0xBFB65, size: 0x8, addend: 0x0, symName: __ZN9rapidjson15GenericDocumentINS_4UTF8IcEENS_19MemoryPoolAllocatorINS_12CrtAllocatorEEES4_ED2Ev, symObjAddr: 0x46E0, symBinAddr: 0x1D280, symSize: 0x40 }
  - { offsetInCU: 0x27D5A, offset: 0xBFE28, size: 0x8, addend: 0x0, symName: __ZN5agora3rtc9extension26SenseTimeExtensionDelegate28st_mobile_check_activecode_bEPKc, symObjAddr: 0x950, symBinAddr: 0x19620, symSize: 0x13C }
  - { offsetInCU: 0x282DD, offset: 0xC03AB, size: 0x8, addend: 0x0, symName: __ZN5agora3rtc9extension17ExtensionDelegateINS0_14VideoFrameDataEE3LogENS_7commons9LOG_LEVELERKNSt3__112basic_stringIcNS7_11char_traitsIcEENS7_9allocatorIcEEEE, symObjAddr: 0xA8C, symBinAddr: 0x1975C, symSize: 0xF4 }
  - { offsetInCU: 0x285B0, offset: 0xC067E, size: 0x8, addend: 0x0, symName: __ZN5agora3rtc9extension26SenseTimeExtensionDelegate31st_mobile_human_action_create_bEPKcj, symObjAddr: 0xB80, symBinAddr: 0x19850, symSize: 0xAC }
  - { offsetInCU: 0x289D3, offset: 0xC0AA1, size: 0x8, addend: 0x0, symName: __ZN5agora3rtc9extension26SenseTimeExtensionDelegate38st_mobile_human_action_detect_enable_bEb, symObjAddr: 0xC2C, symBinAddr: 0x198FC, symSize: 0xC }
  - { offsetInCU: 0x28B01, offset: 0xC0BCF, size: 0x8, addend: 0x0, symName: __ZN5agora3rtc9extension26SenseTimeExtensionDelegate33st_mobile_effect_destroy_handle_bEv, symObjAddr: 0xC38, symBinAddr: 0x19908, symSize: 0xC0 }
  - { offsetInCU: 0x2900A, offset: 0xC10D8, size: 0x8, addend: 0x0, symName: __ZN5agora3rtc9extension26SenseTimeExtensionDelegate32st_mobile_effect_create_handle_bEv, symObjAddr: 0xCF8, symBinAddr: 0x199C8, symSize: 0xBC }
  - { offsetInCU: 0x2950E, offset: 0xC15DC, size: 0x8, addend: 0x0, symName: __ZN5agora3rtc9extension26SenseTimeExtensionDelegate38st_mobile_effect_set_beauty_strength_bEid, symObjAddr: 0xDB4, symBinAddr: 0x19A84, symSize: 0xA4 }
  - { offsetInCU: 0x299EB, offset: 0xC1AB9, size: 0x8, addend: 0x0, symName: __ZN5agora3rtc9extension26SenseTimeExtensionDelegate34st_mobile_effect_set_beauty_mode_bEii, symObjAddr: 0xE58, symBinAddr: 0x19B28, symSize: 0xA8 }
  - { offsetInCU: 0x29E1E, offset: 0xC1EEC, size: 0x8, addend: 0x0, symName: __ZN5agora3rtc9extension26SenseTimeExtensionDelegate23UpdateHumanDetectConfigEv, symObjAddr: 0xF00, symBinAddr: 0x19BD0, symSize: 0xA0 }
  - { offsetInCU: 0x2A367, offset: 0xC2435, size: 0x8, addend: 0x0, symName: __ZN5agora3rtc9extension26SenseTimeExtensionDelegate29st_mobile_effect_set_beauty_bEiPKc, symObjAddr: 0xFA0, symBinAddr: 0x19C70, symSize: 0xA8 }
  - { offsetInCU: 0x2A86A, offset: 0xC2938, size: 0x8, addend: 0x0, symName: __ZN5agora3rtc9extension26SenseTimeExtensionDelegate30st_mobile_effect_add_package_bEPKc, symObjAddr: 0x1048, symBinAddr: 0x19D18, symSize: 0x184 }
  - { offsetInCU: 0x2B044, offset: 0xC3112, size: 0x8, addend: 0x0, symName: __ZNSt3__16__treeINS_12__value_typeINS_12basic_stringIcNS_11char_traitsIcEENS_9allocatorIcEEEEiEENS_19__map_value_compareIS7_S8_NS_4lessIS7_EELb1EEENS5_IS8_EEE25__emplace_unique_key_argsIS7_JRKNS_21piecewise_construct_tENS_5tupleIJOS7_EEENSJ_IJEEEEEENS_4pairINS_15__tree_iteratorIS8_PNS_11__tree_nodeIS8_PvEElEEbEERKT_DpOT0_, symObjAddr: 0x4E0C, symBinAddr: 0x1D674, symSize: 0x98 }
  - { offsetInCU: 0x2B402, offset: 0xC34D0, size: 0x8, addend: 0x0, symName: __ZN5agora3rtc9extension26SenseTimeExtensionDelegate52st_mobile_effect_set_package_beauty_group_strength_bEPKcid, symObjAddr: 0x11CC, symBinAddr: 0x19E9C, symSize: 0x124 }
  - { offsetInCU: 0x2DDD4, offset: 0xC5EA2, size: 0x8, addend: 0x0, symName: __ZN5agora3rtc9extension26SenseTimeExtensionDelegateC2Ev, symObjAddr: 0x12F0, symBinAddr: 0x19FC0, symSize: 0xA04 }
  - { offsetInCU: 0x315FD, offset: 0xC96CB, size: 0x8, addend: 0x0, symName: __ZNSt3__110__function12__value_funcIFiRKN9rapidjson15GenericDocumentINS2_4UTF8IcEENS2_19MemoryPoolAllocatorINS2_12CrtAllocatorEEES7_EEEEC2B7v160006EOSD_, symObjAddr: 0x2830, symBinAddr: 0x1B3D0, symSize: 0x64 }
  - { offsetInCU: 0x3164B, offset: 0xC9719, size: 0x8, addend: 0x0, symName: __ZNSt3__16__treeINS_12__value_typeINS_12basic_stringIcNS_11char_traitsIcEENS_9allocatorIcEEEENS_8functionIFiRKN9rapidjson15GenericDocumentINS9_4UTF8IcEENS9_19MemoryPoolAllocatorINS9_12CrtAllocatorEEESE_EEEEEEENS_19__map_value_compareIS7_SL_NS_4lessIS7_EELb1EEENS5_ISL_EEE21__emplace_unique_implIJNS_4pairIPKcSK_EEEEENST_INS_15__tree_iteratorISL_PNS_11__tree_nodeISL_PvEElEEbEEDpOT_, symObjAddr: 0x530C, symBinAddr: 0x1D8E8, symSize: 0x98 }
  - { offsetInCU: 0x31830, offset: 0xC98FE, size: 0x8, addend: 0x0, symName: __ZNSt3__16__treeINS_12__value_typeINS_12basic_stringIcNS_11char_traitsIcEENS_9allocatorIcEEEEiEENS_19__map_value_compareIS7_S8_NS_4lessIS7_EELb1EEENS5_IS8_EEE7destroyEPNS_11__tree_nodeIS8_PvEE, symObjAddr: 0x51CC, symBinAddr: 0x1D7F0, symSize: 0x50 }
  - { offsetInCU: 0x31B33, offset: 0xC9C01, size: 0x8, addend: 0x0, symName: __ZNSt3__16__treeINS_12__value_typeINS_12basic_stringIcNS_11char_traitsIcEENS_9allocatorIcEEEENS_8functionIFiRKN9rapidjson15GenericDocumentINS9_4UTF8IcEENS9_19MemoryPoolAllocatorINS9_12CrtAllocatorEEESE_EEEEEEENS_19__map_value_compareIS7_SL_NS_4lessIS7_EELb1EEENS5_ISL_EEE7destroyEPNS_11__tree_nodeISL_PvEE, symObjAddr: 0x2894, symBinAddr: 0x1B434, symSize: 0x48 }
  - { offsetInCU: 0x31CC3, offset: 0xC9D91, size: 0x8, addend: 0x0, symName: __ZN5agora3rtc9extension26SenseTimeExtensionDelegateD2Ev, symObjAddr: 0x1CF8, symBinAddr: 0x1A9C8, symSize: 0xB4 }
  - { offsetInCU: 0x31F02, offset: 0xC9FD0, size: 0x8, addend: 0x0, symName: __ZN5agora3rtc9extension26SenseTimeExtensionDelegateD1Ev, symObjAddr: 0x1DB8, symBinAddr: 0x1AA7C, symSize: 0x4 }
  - { offsetInCU: 0x31F25, offset: 0xC9FF3, size: 0x8, addend: 0x0, symName: __ZN5agora3rtc9extension26SenseTimeExtensionDelegateD1Ev, symObjAddr: 0x1DB8, symBinAddr: 0x1AA7C, symSize: 0x4 }
  - { offsetInCU: 0x31F55, offset: 0xCA023, size: 0x8, addend: 0x0, symName: __ZN5agora3rtc9extension26SenseTimeExtensionDelegateD0Ev, symObjAddr: 0x1DBC, symBinAddr: 0x1AA80, symSize: 0x14 }
  - { offsetInCU: 0x31FD5, offset: 0xCA0A3, size: 0x8, addend: 0x0, symName: __ZN5agora3rtc9extension26SenseTimeExtensionDelegate8OnCreateEPNS1_16ExtensionContextE, symObjAddr: 0x1DD0, symBinAddr: 0x1AA94, symSize: 0x8 }
  - { offsetInCU: 0x3200E, offset: 0xCA0DC, size: 0x8, addend: 0x0, symName: __ZN5agora3rtc9extension26SenseTimeExtensionDelegate8OnCreateEPNS1_16ExtensionContextE, symObjAddr: 0x1DD0, symBinAddr: 0x1AA94, symSize: 0x8 }
  - { offsetInCU: 0x32031, offset: 0xCA0FF, size: 0x8, addend: 0x0, symName: __ZN5agora3rtc9extension26SenseTimeExtensionDelegate9OnDestroyEv, symObjAddr: 0x1DD8, symBinAddr: 0x1AA9C, symSize: 0x6C }
  - { offsetInCU: 0x32076, offset: 0xCA144, size: 0x8, addend: 0x0, symName: __ZN5agora3rtc9extension26SenseTimeExtensionDelegate7OnStartEv, symObjAddr: 0x1E44, symBinAddr: 0x1AB08, symSize: 0x2C }
  - { offsetInCU: 0x320E0, offset: 0xCA1AE, size: 0x8, addend: 0x0, symName: __ZN5agora3rtc9extension26SenseTimeExtensionDelegate6OnStopEv, symObjAddr: 0x1E70, symBinAddr: 0x1AB34, symSize: 0x44 }
  - { offsetInCU: 0x32152, offset: 0xCA220, size: 0x8, addend: 0x0, symName: __ZN5agora3rtc9extension26SenseTimeExtensionDelegate10SetEnabledEb, symObjAddr: 0x1EB4, symBinAddr: 0x1AB78, symSize: 0xC }
  - { offsetInCU: 0x32244, offset: 0xCA312, size: 0x8, addend: 0x0, symName: __ZNK5agora3rtc9extension26SenseTimeExtensionDelegate9IsEnabledEv, symObjAddr: 0x1EC0, symBinAddr: 0x1AB84, symSize: 0x10 }
  - { offsetInCU: 0x3249C, offset: 0xCA56A, size: 0x8, addend: 0x0, symName: __ZN5agora3rtc9extension26SenseTimeExtensionDelegate11SetPropertyEPKcPKvm, symObjAddr: 0x1ED0, symBinAddr: 0x1AB94, symSize: 0x13C }
  - { offsetInCU: 0x32A2B, offset: 0xCAAF9, size: 0x8, addend: 0x0, symName: __ZN9rapidjson15GenericDocumentINS_4UTF8IcEENS_19MemoryPoolAllocatorINS_12CrtAllocatorEEES4_E11ParseStreamILj0ES2_NS_19GenericStringStreamIS2_EEEERS6_RT1_, symObjAddr: 0x67C0, symBinAddr: 0x1ED9C, symSize: 0x118 }
  - { offsetInCU: 0x32E4D, offset: 0xCAF1B, size: 0x8, addend: 0x0, symName: __ZN5agora3rtc9extension26SenseTimeExtensionDelegate11GetPropertyEPKcPvm, symObjAddr: 0x200C, symBinAddr: 0x1ACD0, symSize: 0x30 }
  - { offsetInCU: 0x32F11, offset: 0xCAFDF, size: 0x8, addend: 0x0, symName: __ZN5agora3rtc9extension26SenseTimeExtensionDelegate18GetExtensionConfigERNS1_15ExtensionConfigE, symObjAddr: 0x203C, symBinAddr: 0x1AD00, symSize: 0x1C }
  - { offsetInCU: 0x32F46, offset: 0xCB014, size: 0x8, addend: 0x0, symName: __ZN5agora3rtc9extension26SenseTimeExtensionDelegate12ProcessFrameERNS0_14VideoFrameDataE, symObjAddr: 0x2058, symBinAddr: 0x1AD1C, symSize: 0x78 }
  - { offsetInCU: 0x3304E, offset: 0xCB11C, size: 0x8, addend: 0x0, symName: __ZN5agora3rtc9extension26SenseTimeExtensionDelegate13ProcessEffectERNS0_14VideoFrameDataE, symObjAddr: 0x20D0, symBinAddr: 0x1AD94, symSize: 0x398 }
  - { offsetInCU: 0x33927, offset: 0xCB9F5, size: 0x8, addend: 0x0, symName: __ZN5agora3rtc9extension26SenseTimeExtensionDelegate33st_mobile_effect_remove_package_bEPKc, symObjAddr: 0x2468, symBinAddr: 0x1B12C, symSize: 0x174 }
  - { offsetInCU: 0x33E5B, offset: 0xCBF29, size: 0x8, addend: 0x0, symName: __ZNSt3__16__treeINS_12__value_typeINS_12basic_stringIcNS_11char_traitsIcEENS_9allocatorIcEEEEiEENS_19__map_value_compareIS7_S8_NS_4lessIS7_EELb1EEENS5_IS8_EEE4findIS7_EENS_15__tree_iteratorIS8_PNS_11__tree_nodeIS8_PvEElEERKT_, symObjAddr: 0x83C8, symBinAddr: 0x209A4, symSize: 0x7C }
  - { offsetInCU: 0x33FEE, offset: 0xCC0BC, size: 0x8, addend: 0x0, symName: __ZN5agora3rtc9extension26SenseTimeExtensionDelegate33st_mobile_effect_clear_packages_bEv, symObjAddr: 0x25DC, symBinAddr: 0x1B2A0, symSize: 0xEC }
  - { offsetInCU: 0x343EF, offset: 0xCC4BD, size: 0x8, addend: 0x0, symName: __ZN5agora3rtc9extension26SenseTimeExtensionDelegate15st_set_mirror_bEb, symObjAddr: 0x26C8, symBinAddr: 0x1B38C, symSize: 0xC }
  - { offsetInCU: 0x34783, offset: 0xCC851, size: 0x8, addend: 0x0, symName: __ZN9rapidjson8internal5StackINS_12CrtAllocatorEE4PushINS_6WriterINS_19GenericStringBufferINS_4UTF8IcEES2_EES8_S8_S2_Lj0EE5LevelEEEPT_m, symObjAddr: 0x30CC, symBinAddr: 0x1BC6C, symSize: 0x48 }
  - { offsetInCU: 0x3482C, offset: 0xCC8FA, size: 0x8, addend: 0x0, symName: __ZNK9rapidjson12GenericValueINS_4UTF8IcEENS_19MemoryPoolAllocatorINS_12CrtAllocatorEEEE9GetStringEv.cold.1, symObjAddr: 0x8558, symBinAddr: 0x92ADC8, symSize: 0x28 }
  - { offsetInCU: 0x34858, offset: 0xCC926, size: 0x8, addend: 0x0, symName: __ZNK9rapidjson12GenericValueINS_4UTF8IcEENS_19MemoryPoolAllocatorINS_12CrtAllocatorEEEE15GetStringLengthEv.cold.1, symObjAddr: 0x8580, symBinAddr: 0x92ADF0, symSize: 0x28 }
  - { offsetInCU: 0x348B0, offset: 0xCC97E, size: 0x8, addend: 0x0, symName: __ZN9rapidjson6WriterINS_19GenericStringBufferINS_4UTF8IcEENS_12CrtAllocatorEEES3_S3_S4_Lj0EE9EndObjectEj.cold.1, symObjAddr: 0x85A8, symBinAddr: 0x92AE18, symSize: 0x28 }
  - { offsetInCU: 0x348C8, offset: 0xCC996, size: 0x8, addend: 0x0, symName: __ZN9rapidjson6WriterINS_19GenericStringBufferINS_4UTF8IcEENS_12CrtAllocatorEEES3_S3_S4_Lj0EE9EndObjectEj.cold.3, symObjAddr: 0x85F8, symBinAddr: 0x92AE68, symSize: 0x28 }
  - { offsetInCU: 0x348E0, offset: 0xCC9AE, size: 0x8, addend: 0x0, symName: __ZN9rapidjson6WriterINS_19GenericStringBufferINS_4UTF8IcEENS_12CrtAllocatorEEES3_S3_S4_Lj0EE9EndObjectEj.cold.2, symObjAddr: 0x85D0, symBinAddr: 0x92AE40, symSize: 0x28 }
  - { offsetInCU: 0x34943, offset: 0xCCA11, size: 0x8, addend: 0x0, symName: __ZN9rapidjson6WriterINS_19GenericStringBufferINS_4UTF8IcEENS_12CrtAllocatorEEES3_S3_S4_Lj0EE8EndArrayEj.cold.1, symObjAddr: 0x8620, symBinAddr: 0x92AE90, symSize: 0x28 }
  - { offsetInCU: 0x3495B, offset: 0xCCA29, size: 0x8, addend: 0x0, symName: __ZN9rapidjson6WriterINS_19GenericStringBufferINS_4UTF8IcEENS_12CrtAllocatorEEES3_S3_S4_Lj0EE8EndArrayEj.cold.2, symObjAddr: 0x8648, symBinAddr: 0x92AEB8, symSize: 0x28 }
  - { offsetInCU: 0x34973, offset: 0xCCA41, size: 0x8, addend: 0x0, symName: __ZN9rapidjson6WriterINS_19GenericStringBufferINS_4UTF8IcEENS_12CrtAllocatorEEES3_S3_S4_Lj0EE6StringEPKcjb.cold.1, symObjAddr: 0x8670, symBinAddr: 0x92AEE0, symSize: 0x28 }
  - { offsetInCU: 0x34A09, offset: 0xCCAD7, size: 0x8, addend: 0x0, symName: __ZN9rapidjson6WriterINS_19GenericStringBufferINS_4UTF8IcEENS_12CrtAllocatorEEES3_S3_S4_Lj0EE3IntEi.cold.1, symObjAddr: 0x8698, symBinAddr: 0x92AF08, symSize: 0x28 }
  - { offsetInCU: 0x34A4D, offset: 0xCCB1B, size: 0x8, addend: 0x0, symName: __ZN9rapidjson6WriterINS_19GenericStringBufferINS_4UTF8IcEENS_12CrtAllocatorEEES3_S3_S4_Lj0EE3IntEi.cold.2, symObjAddr: 0x86C0, symBinAddr: 0x92AF30, symSize: 0x24 }
  - { offsetInCU: 0x34AE2, offset: 0xCCBB0, size: 0x8, addend: 0x0, symName: __ZN9rapidjson6WriterINS_19GenericStringBufferINS_4UTF8IcEENS_12CrtAllocatorEEES3_S3_S4_Lj0EE4UintEj.cold.1, symObjAddr: 0x86E4, symBinAddr: 0x92AF54, symSize: 0x24 }
  - { offsetInCU: 0x34B77, offset: 0xCCC45, size: 0x8, addend: 0x0, symName: __ZN9rapidjson6WriterINS_19GenericStringBufferINS_4UTF8IcEENS_12CrtAllocatorEEES3_S3_S4_Lj0EE5Int64Ex.cold.1, symObjAddr: 0x8708, symBinAddr: 0x92AF78, symSize: 0x28 }
  - { offsetInCU: 0x34BBB, offset: 0xCCC89, size: 0x8, addend: 0x0, symName: __ZN9rapidjson6WriterINS_19GenericStringBufferINS_4UTF8IcEENS_12CrtAllocatorEEES3_S3_S4_Lj0EE5Int64Ex.cold.2, symObjAddr: 0x8730, symBinAddr: 0x92AFA0, symSize: 0x24 }
  - { offsetInCU: 0x34C50, offset: 0xCCD1E, size: 0x8, addend: 0x0, symName: __ZN9rapidjson6WriterINS_19GenericStringBufferINS_4UTF8IcEENS_12CrtAllocatorEEES3_S3_S4_Lj0EE6Uint64Ey.cold.1, symObjAddr: 0x8754, symBinAddr: 0x92AFC4, symSize: 0x24 }
  - { offsetInCU: 0x34CA9, offset: 0xCCD77, size: 0x8, addend: 0x0, symName: __ZN9rapidjson6WriterINS_19GenericStringBufferINS_4UTF8IcEENS_12CrtAllocatorEEES3_S3_S4_Lj0EE6PrefixENS_4TypeE.cold.2, symObjAddr: 0x87A0, symBinAddr: 0x92B010, symSize: 0x24 }
  - { offsetInCU: 0x34CD8, offset: 0xCCDA6, size: 0x8, addend: 0x0, symName: __ZN9rapidjson6WriterINS_19GenericStringBufferINS_4UTF8IcEENS_12CrtAllocatorEEES3_S3_S4_Lj0EE6PrefixENS_4TypeE.cold.3, symObjAddr: 0x87C4, symBinAddr: 0x92B034, symSize: 0x28 }
  - { offsetInCU: 0x34CF0, offset: 0xCCDBE, size: 0x8, addend: 0x0, symName: __ZN9rapidjson6WriterINS_19GenericStringBufferINS_4UTF8IcEENS_12CrtAllocatorEEES3_S3_S4_Lj0EE6PrefixENS_4TypeE.cold.1, symObjAddr: 0x8778, symBinAddr: 0x92AFE8, symSize: 0x28 }
  - { offsetInCU: 0x34D73, offset: 0xCCE41, size: 0x8, addend: 0x0, symName: __ZN9rapidjson8internal5StackINS_12CrtAllocatorEE10PushUnsafeIcEEPT_m, symObjAddr: 0x2EE4, symBinAddr: 0x1BA84, symSize: 0x3C }
  - { offsetInCU: 0x34DC9, offset: 0xCCE97, size: 0x8, addend: 0x0, symName: __ZN9rapidjson8internal5StackINS_12CrtAllocatorEE6ExpandIcEEvm, symObjAddr: 0x2F20, symBinAddr: 0x1BAC0, symSize: 0x70 }
  - { offsetInCU: 0x34DDC, offset: 0xCCEAA, size: 0x8, addend: 0x0, symName: __ZN9rapidjson8internal5StackINS_12CrtAllocatorEE6ExpandIcEEvm, symObjAddr: 0x2F20, symBinAddr: 0x1BAC0, symSize: 0x70 }
  - { offsetInCU: 0x34E88, offset: 0xCCF56, size: 0x8, addend: 0x0, symName: __ZN9rapidjson8internal5StackINS_12CrtAllocatorEE10PushUnsafeIcEEPT_m.cold.1, symObjAddr: 0x87EC, symBinAddr: 0x92B05C, symSize: 0x24 }
  - { offsetInCU: 0x34EA0, offset: 0xCCF6E, size: 0x8, addend: 0x0, symName: __ZN9rapidjson8internal5StackINS_12CrtAllocatorEE10PushUnsafeIcEEPT_m.cold.2, symObjAddr: 0x8810, symBinAddr: 0x92B080, symSize: 0x24 }
  - { offsetInCU: 0x34ECD, offset: 0xCCF9B, size: 0x8, addend: 0x0, symName: __ZN9rapidjson8internal5StackINS_12CrtAllocatorEE6ResizeEm, symObjAddr: 0x2F90, symBinAddr: 0x1BB30, symSize: 0x5C }
  - { offsetInCU: 0x34FB3, offset: 0xCD081, size: 0x8, addend: 0x0, symName: __ZN9rapidjson8internal5StackINS_12CrtAllocatorEE10PushUnsafeINS_6WriterINS_19GenericStringBufferINS_4UTF8IcEES2_EES8_S8_S2_Lj0EE5LevelEEEPT_m, symObjAddr: 0x3114, symBinAddr: 0x1BCB4, symSize: 0x40 }
  - { offsetInCU: 0x35009, offset: 0xCD0D7, size: 0x8, addend: 0x0, symName: __ZN9rapidjson8internal5StackINS_12CrtAllocatorEE6ExpandINS_6WriterINS_19GenericStringBufferINS_4UTF8IcEES2_EES8_S8_S2_Lj0EE5LevelEEEvm, symObjAddr: 0x3154, symBinAddr: 0x1BCF4, symSize: 0x74 }
  - { offsetInCU: 0x3501C, offset: 0xCD0EA, size: 0x8, addend: 0x0, symName: __ZN9rapidjson8internal5StackINS_12CrtAllocatorEE6ExpandINS_6WriterINS_19GenericStringBufferINS_4UTF8IcEES2_EES8_S8_S2_Lj0EE5LevelEEEvm, symObjAddr: 0x3154, symBinAddr: 0x1BCF4, symSize: 0x74 }
  - { offsetInCU: 0x350C0, offset: 0xCD18E, size: 0x8, addend: 0x0, symName: __ZN9rapidjson8internal5StackINS_12CrtAllocatorEE10PushUnsafeINS_6WriterINS_19GenericStringBufferINS_4UTF8IcEES2_EES8_S8_S2_Lj0EE5LevelEEEPT_m.cold.1, symObjAddr: 0x8834, symBinAddr: 0x92B0A4, symSize: 0x24 }
  - { offsetInCU: 0x350D8, offset: 0xCD1A6, size: 0x8, addend: 0x0, symName: __ZN9rapidjson8internal5StackINS_12CrtAllocatorEE10PushUnsafeINS_6WriterINS_19GenericStringBufferINS_4UTF8IcEES2_EES8_S8_S2_Lj0EE5LevelEEEPT_m.cold.2, symObjAddr: 0x8858, symBinAddr: 0x92B0C8, symSize: 0x24 }
  - { offsetInCU: 0x3519C, offset: 0xCD26A, size: 0x8, addend: 0x0, symName: __ZN9rapidjson6WriterINS_19GenericStringBufferINS_4UTF8IcEENS_12CrtAllocatorEEES3_S3_S4_Lj0EE11WriteDoubleEd.cold.1, symObjAddr: 0x887C, symBinAddr: 0x92B0EC, symSize: 0x28 }
  - { offsetInCU: 0x351CB, offset: 0xCD299, size: 0x8, addend: 0x0, symName: __ZN9rapidjson6WriterINS_19GenericStringBufferINS_4UTF8IcEENS_12CrtAllocatorEEES3_S3_S4_Lj0EE11WriteDoubleEd.cold.2, symObjAddr: 0x88A4, symBinAddr: 0x92B114, symSize: 0x24 }
  - { offsetInCU: 0x35345, offset: 0xCD413, size: 0x8, addend: 0x0, symName: __ZNK9rapidjson8internal5DiyFp17NormalizeBoundaryEv, symObjAddr: 0x3C84, symBinAddr: 0x1C824, symSize: 0x40 }
  - { offsetInCU: 0x3537A, offset: 0xCD448, size: 0x8, addend: 0x0, symName: __ZNK9rapidjson8internal5DiyFp9NormalizeEv, symObjAddr: 0x3864, symBinAddr: 0x1C404, symSize: 0x30 }
  - { offsetInCU: 0x353C9, offset: 0xCD497, size: 0x8, addend: 0x0, symName: __ZNK9rapidjson8internal5DiyFpmlERKS1_, symObjAddr: 0x3894, symBinAddr: 0x1C434, symSize: 0x60 }
  - { offsetInCU: 0x353D4, offset: 0xCD4A2, size: 0x8, addend: 0x0, symName: __ZNK9rapidjson8internal5DiyFpmlERKS1_, symObjAddr: 0x3894, symBinAddr: 0x1C434, symSize: 0x60 }
  - { offsetInCU: 0x354A3, offset: 0xCD571, size: 0x8, addend: 0x0, symName: __ZN9rapidjson8internal6Grisu2EdPcPiS2_.cold.1, symObjAddr: 0x88C8, symBinAddr: 0x92B138, symSize: 0x28 }
  - { offsetInCU: 0x354E5, offset: 0xCD5B3, size: 0x8, addend: 0x0, symName: __ZNK9rapidjson8internal5DiyFp9NormalizeEv.cold.1, symObjAddr: 0x88F0, symBinAddr: 0x92B160, symSize: 0x28 }
  - { offsetInCU: 0x35533, offset: 0xCD601, size: 0x8, addend: 0x0, symName: __ZN9rapidjson8internal6u32toaEjPc.cold.1, symObjAddr: 0x8918, symBinAddr: 0x92B188, symSize: 0x28 }
  - { offsetInCU: 0x3554B, offset: 0xCD619, size: 0x8, addend: 0x0, symName: __ZN9rapidjson8internal6u64toaEyPc.cold.1, symObjAddr: 0x8940, symBinAddr: 0x92B1B0, symSize: 0x28 }
  - { offsetInCU: 0x355E6, offset: 0xCD6B4, size: 0x8, addend: 0x0, symName: __ZN9rapidjson19MemoryPoolAllocatorINS_12CrtAllocatorEEC2EmPS1_, symObjAddr: 0x466C, symBinAddr: 0x1D20C, symSize: 0x74 }
  - { offsetInCU: 0x3564F, offset: 0xCD71D, size: 0x8, addend: 0x0, symName: __ZN9rapidjson15GenericDocumentINS_4UTF8IcEENS_19MemoryPoolAllocatorINS_12CrtAllocatorEEES4_ED2Ev, symObjAddr: 0x46E0, symBinAddr: 0x1D280, symSize: 0x40 }
  - { offsetInCU: 0x3567B, offset: 0xCD749, size: 0x8, addend: 0x0, symName: __ZN9rapidjson19MemoryPoolAllocatorINS_12CrtAllocatorEEC2EmPS1_.cold.1, symObjAddr: 0x8968, symBinAddr: 0x92B1D8, symSize: 0x28 }
  - { offsetInCU: 0x356C2, offset: 0xCD790, size: 0x8, addend: 0x0, symName: __ZN9rapidjson15GenericDocumentINS_4UTF8IcEENS_19MemoryPoolAllocatorINS_12CrtAllocatorEEES4_E7DestroyEv, symObjAddr: 0x4720, symBinAddr: 0x1D2C0, symSize: 0x24 }
  - { offsetInCU: 0x3572F, offset: 0xCD7FD, size: 0x8, addend: 0x0, symName: __ZN9rapidjson19MemoryPoolAllocatorINS_12CrtAllocatorEED2Ev, symObjAddr: 0x4744, symBinAddr: 0x1D2E4, symSize: 0x68 }
  - { offsetInCU: 0x357AB, offset: 0xCD879, size: 0x8, addend: 0x0, symName: __ZN9rapidjson19MemoryPoolAllocatorINS_12CrtAllocatorEE5ClearEv, symObjAddr: 0x47AC, symBinAddr: 0x1D34C, symSize: 0x70 }
  - { offsetInCU: 0x35810, offset: 0xCD8DE, size: 0x8, addend: 0x0, symName: __ZN9rapidjson12GenericValueINS_4UTF8IcEENS_19MemoryPoolAllocatorINS_12CrtAllocatorEEEE11DoAddMemberERS6_S7_RS5_, symObjAddr: 0x485C, symBinAddr: 0x1D3FC, symSize: 0xC0 }
  - { offsetInCU: 0x359B0, offset: 0xCDA7E, size: 0x8, addend: 0x0, symName: __ZN9rapidjson12GenericValueINS_4UTF8IcEENS_19MemoryPoolAllocatorINS_12CrtAllocatorEEEE9AddMemberERS6_S7_RS5_.cold.2, symObjAddr: 0x89B8, symBinAddr: 0x92B228, symSize: 0x28 }
  - { offsetInCU: 0x359C8, offset: 0xCDA96, size: 0x8, addend: 0x0, symName: __ZN9rapidjson12GenericValueINS_4UTF8IcEENS_19MemoryPoolAllocatorINS_12CrtAllocatorEEEE9AddMemberERS6_S7_RS5_.cold.1, symObjAddr: 0x8990, symBinAddr: 0x92B200, symSize: 0x28 }
  - { offsetInCU: 0x35A52, offset: 0xCDB20, size: 0x8, addend: 0x0, symName: __ZN9rapidjson19MemoryPoolAllocatorINS_12CrtAllocatorEE7ReallocEPvmm, symObjAddr: 0x491C, symBinAddr: 0x1D4BC, symSize: 0xCC }
  - { offsetInCU: 0x35AE5, offset: 0xCDBB3, size: 0x8, addend: 0x0, symName: __ZN9rapidjson19MemoryPoolAllocatorINS_12CrtAllocatorEE6MallocEm, symObjAddr: 0x49E8, symBinAddr: 0x1D588, symSize: 0x88 }
  - { offsetInCU: 0x35B02, offset: 0xCDBD0, size: 0x8, addend: 0x0, symName: __ZN9rapidjson19MemoryPoolAllocatorINS_12CrtAllocatorEE6MallocEm, symObjAddr: 0x49E8, symBinAddr: 0x1D588, symSize: 0x88 }
  - { offsetInCU: 0x35B74, offset: 0xCDC42, size: 0x8, addend: 0x0, symName: __ZN9rapidjson19MemoryPoolAllocatorINS_12CrtAllocatorEE7ReallocEPvmm.cold.1, symObjAddr: 0x89E0, symBinAddr: 0x92B250, symSize: 0x28 }
  - { offsetInCU: 0x35B8C, offset: 0xCDC5A, size: 0x8, addend: 0x0, symName: __ZN9rapidjson19MemoryPoolAllocatorINS_12CrtAllocatorEE6MallocEm.cold.1, symObjAddr: 0x8A08, symBinAddr: 0x92B278, symSize: 0x28 }
  - { offsetInCU: 0x35BA3, offset: 0xCDC71, size: 0x8, addend: 0x0, symName: __ZN9rapidjson19MemoryPoolAllocatorINS_12CrtAllocatorEE8AddChunkEm, symObjAddr: 0x4A70, symBinAddr: 0x1D610, symSize: 0x64 }
  - { offsetInCU: 0x35F57, offset: 0xCE025, size: 0x8, addend: 0x0, symName: __ZNSt3__16__treeINS_12__value_typeINS_12basic_stringIcNS_11char_traitsIcEENS_9allocatorIcEEEEiEENS_19__map_value_compareIS7_S8_NS_4lessIS7_EELb1EEENS5_IS8_EEE25__emplace_unique_key_argsIS7_JRKNS_21piecewise_construct_tENS_5tupleIJOS7_EEENSJ_IJEEEEEENS_4pairINS_15__tree_iteratorIS8_PNS_11__tree_nodeIS8_PvEElEEbEERKT_DpOT0_, symObjAddr: 0x4E0C, symBinAddr: 0x1D674, symSize: 0x98 }
  - { offsetInCU: 0x36280, offset: 0xCE34E, size: 0x8, addend: 0x0, symName: __ZNSt3__16__treeINS_12__value_typeINS_12basic_stringIcNS_11char_traitsIcEENS_9allocatorIcEEEEiEENS_19__map_value_compareIS7_S8_NS_4lessIS7_EELb1EEENS5_IS8_EEE12__find_equalIS7_EERPNS_16__tree_node_baseIPvEERPNS_15__tree_end_nodeISJ_EERKT_, symObjAddr: 0x4EA4, symBinAddr: 0x1D70C, symSize: 0x90 }
  - { offsetInCU: 0x36400, offset: 0xCE4CE, size: 0x8, addend: 0x0, symName: __ZNSt3__16__treeINS_12__value_typeINS_12basic_stringIcNS_11char_traitsIcEENS_9allocatorIcEEEEiEENS_19__map_value_compareIS7_S8_NS_4lessIS7_EELb1EEENS5_IS8_EEE16__insert_node_atEPNS_15__tree_end_nodeIPNS_16__tree_node_baseIPvEEEERSJ_SJ_, symObjAddr: 0x4F34, symBinAddr: 0x1D79C, symSize: 0x54 }
  - { offsetInCU: 0x366EB, offset: 0xCE7B9, size: 0x8, addend: 0x0, symName: '__ZNSt3__110__function6__funcIZN5agora3rtc9extension26SenseTimeExtensionDelegateC1EvE3$_0NS_9allocatorIS6_EEFiRKN9rapidjson15GenericDocumentINS9_4UTF8IcEENS9_19MemoryPoolAllocatorINS9_12CrtAllocatorEEESE_EEEED1Ev', symObjAddr: 0x521C, symBinAddr: 0x1D840, symSize: 0x4 }
  - { offsetInCU: 0x36717, offset: 0xCE7E5, size: 0x8, addend: 0x0, symName: '__ZNSt3__110__function6__funcIZN5agora3rtc9extension26SenseTimeExtensionDelegateC1EvE3$_0NS_9allocatorIS6_EEFiRKN9rapidjson15GenericDocumentINS9_4UTF8IcEENS9_19MemoryPoolAllocatorINS9_12CrtAllocatorEEESE_EEEED0Ev', symObjAddr: 0x5220, symBinAddr: 0x1D844, symSize: 0x4 }
  - { offsetInCU: 0x3691B, offset: 0xCE9E9, size: 0x8, addend: 0x0, symName: '__ZNKSt3__110__function6__funcIZN5agora3rtc9extension26SenseTimeExtensionDelegateC1EvE3$_0NS_9allocatorIS6_EEFiRKN9rapidjson15GenericDocumentINS9_4UTF8IcEENS9_19MemoryPoolAllocatorINS9_12CrtAllocatorEEESE_EEEE7__cloneEv', symObjAddr: 0x5224, symBinAddr: 0x1D848, symSize: 0x34 }
  - { offsetInCU: 0x36C19, offset: 0xCECE7, size: 0x8, addend: 0x0, symName: '__ZNKSt3__110__function6__funcIZN5agora3rtc9extension26SenseTimeExtensionDelegateC1EvE3$_0NS_9allocatorIS6_EEFiRKN9rapidjson15GenericDocumentINS9_4UTF8IcEENS9_19MemoryPoolAllocatorINS9_12CrtAllocatorEEESE_EEEE7__cloneEPNS0_6__baseISJ_EE', symObjAddr: 0x5258, symBinAddr: 0x1D87C, symSize: 0x14 }
  - { offsetInCU: 0x36C51, offset: 0xCED1F, size: 0x8, addend: 0x0, symName: '__ZNKSt3__110__function6__funcIZN5agora3rtc9extension26SenseTimeExtensionDelegateC1EvE3$_0NS_9allocatorIS6_EEFiRKN9rapidjson15GenericDocumentINS9_4UTF8IcEENS9_19MemoryPoolAllocatorINS9_12CrtAllocatorEEESE_EEEE7__cloneEPNS0_6__baseISJ_EE', symObjAddr: 0x5258, symBinAddr: 0x1D87C, symSize: 0x14 }
  - { offsetInCU: 0x36C80, offset: 0xCED4E, size: 0x8, addend: 0x0, symName: '__ZNKSt3__110__function6__funcIZN5agora3rtc9extension26SenseTimeExtensionDelegateC1EvE3$_0NS_9allocatorIS6_EEFiRKN9rapidjson15GenericDocumentINS9_4UTF8IcEENS9_19MemoryPoolAllocatorINS9_12CrtAllocatorEEESE_EEEE7__cloneEPNS0_6__baseISJ_EE', symObjAddr: 0x5258, symBinAddr: 0x1D87C, symSize: 0x14 }
  - { offsetInCU: 0x36CAF, offset: 0xCED7D, size: 0x8, addend: 0x0, symName: '__ZNKSt3__110__function6__funcIZN5agora3rtc9extension26SenseTimeExtensionDelegateC1EvE3$_0NS_9allocatorIS6_EEFiRKN9rapidjson15GenericDocumentINS9_4UTF8IcEENS9_19MemoryPoolAllocatorINS9_12CrtAllocatorEEESE_EEEE7__cloneEPNS0_6__baseISJ_EE', symObjAddr: 0x5258, symBinAddr: 0x1D87C, symSize: 0x14 }
  - { offsetInCU: 0x36CC5, offset: 0xCED93, size: 0x8, addend: 0x0, symName: '__ZNKSt3__110__function6__funcIZN5agora3rtc9extension26SenseTimeExtensionDelegateC1EvE3$_0NS_9allocatorIS6_EEFiRKN9rapidjson15GenericDocumentINS9_4UTF8IcEENS9_19MemoryPoolAllocatorINS9_12CrtAllocatorEEESE_EEEE7__cloneEPNS0_6__baseISJ_EE', symObjAddr: 0x5258, symBinAddr: 0x1D87C, symSize: 0x14 }
  - { offsetInCU: 0x36CD9, offset: 0xCEDA7, size: 0x8, addend: 0x0, symName: '__ZNKSt3__110__function6__funcIZN5agora3rtc9extension26SenseTimeExtensionDelegateC1EvE3$_0NS_9allocatorIS6_EEFiRKN9rapidjson15GenericDocumentINS9_4UTF8IcEENS9_19MemoryPoolAllocatorINS9_12CrtAllocatorEEESE_EEEE7__cloneEPNS0_6__baseISJ_EE', symObjAddr: 0x5258, symBinAddr: 0x1D87C, symSize: 0x14 }
  - { offsetInCU: 0x36CED, offset: 0xCEDBB, size: 0x8, addend: 0x0, symName: '__ZNKSt3__110__function6__funcIZN5agora3rtc9extension26SenseTimeExtensionDelegateC1EvE3$_0NS_9allocatorIS6_EEFiRKN9rapidjson15GenericDocumentINS9_4UTF8IcEENS9_19MemoryPoolAllocatorINS9_12CrtAllocatorEEESE_EEEE7__cloneEPNS0_6__baseISJ_EE', symObjAddr: 0x5258, symBinAddr: 0x1D87C, symSize: 0x14 }
  - { offsetInCU: 0x36D02, offset: 0xCEDD0, size: 0x8, addend: 0x0, symName: '__ZNKSt3__110__function6__funcIZN5agora3rtc9extension26SenseTimeExtensionDelegateC1EvE3$_0NS_9allocatorIS6_EEFiRKN9rapidjson15GenericDocumentINS9_4UTF8IcEENS9_19MemoryPoolAllocatorINS9_12CrtAllocatorEEESE_EEEE7__cloneEPNS0_6__baseISJ_EE', symObjAddr: 0x5258, symBinAddr: 0x1D87C, symSize: 0x14 }
  - { offsetInCU: 0x36D19, offset: 0xCEDE7, size: 0x8, addend: 0x0, symName: '__ZNSt3__110__function6__funcIZN5agora3rtc9extension26SenseTimeExtensionDelegateC1EvE3$_0NS_9allocatorIS6_EEFiRKN9rapidjson15GenericDocumentINS9_4UTF8IcEENS9_19MemoryPoolAllocatorINS9_12CrtAllocatorEEESE_EEEE7destroyEv', symObjAddr: 0x526C, symBinAddr: 0x1D890, symSize: 0x4 }
  - { offsetInCU: 0x36D6A, offset: 0xCEE38, size: 0x8, addend: 0x0, symName: '__ZNSt3__110__function6__funcIZN5agora3rtc9extension26SenseTimeExtensionDelegateC1EvE3$_0NS_9allocatorIS6_EEFiRKN9rapidjson15GenericDocumentINS9_4UTF8IcEENS9_19MemoryPoolAllocatorINS9_12CrtAllocatorEEESE_EEEE18destroy_deallocateEv', symObjAddr: 0x5270, symBinAddr: 0x1D894, symSize: 0x4 }
  - { offsetInCU: 0x36DA0, offset: 0xCEE6E, size: 0x8, addend: 0x0, symName: '__ZNSt3__110__function6__funcIZN5agora3rtc9extension26SenseTimeExtensionDelegateC1EvE3$_0NS_9allocatorIS6_EEFiRKN9rapidjson15GenericDocumentINS9_4UTF8IcEENS9_19MemoryPoolAllocatorINS9_12CrtAllocatorEEESE_EEEE18destroy_deallocateEv', symObjAddr: 0x5270, symBinAddr: 0x1D894, symSize: 0x4 }
  - { offsetInCU: 0x36DC4, offset: 0xCEE92, size: 0x8, addend: 0x0, symName: '__ZNSt3__110__function6__funcIZN5agora3rtc9extension26SenseTimeExtensionDelegateC1EvE3$_0NS_9allocatorIS6_EEFiRKN9rapidjson15GenericDocumentINS9_4UTF8IcEENS9_19MemoryPoolAllocatorINS9_12CrtAllocatorEEESE_EEEE18destroy_deallocateEv', symObjAddr: 0x5270, symBinAddr: 0x1D894, symSize: 0x4 }
  - { offsetInCU: 0x36DF0, offset: 0xCEEBE, size: 0x8, addend: 0x0, symName: '__ZNSt3__110__function6__funcIZN5agora3rtc9extension26SenseTimeExtensionDelegateC1EvE3$_0NS_9allocatorIS6_EEFiRKN9rapidjson15GenericDocumentINS9_4UTF8IcEENS9_19MemoryPoolAllocatorINS9_12CrtAllocatorEEESE_EEEE18destroy_deallocateEv', symObjAddr: 0x5270, symBinAddr: 0x1D894, symSize: 0x4 }
  - { offsetInCU: 0x36E17, offset: 0xCEEE5, size: 0x8, addend: 0x0, symName: '__ZNSt3__110__function6__funcIZN5agora3rtc9extension26SenseTimeExtensionDelegateC1EvE3$_0NS_9allocatorIS6_EEFiRKN9rapidjson15GenericDocumentINS9_4UTF8IcEENS9_19MemoryPoolAllocatorINS9_12CrtAllocatorEEESE_EEEE18destroy_deallocateEv', symObjAddr: 0x5270, symBinAddr: 0x1D894, symSize: 0x4 }
  - { offsetInCU: 0x36ECC, offset: 0xCEF9A, size: 0x8, addend: 0x0, symName: '__ZNSt3__110__function6__funcIZN5agora3rtc9extension26SenseTimeExtensionDelegateC1EvE3$_0NS_9allocatorIS6_EEFiRKN9rapidjson15GenericDocumentINS9_4UTF8IcEENS9_19MemoryPoolAllocatorINS9_12CrtAllocatorEEESE_EEEEclESI_', symObjAddr: 0x5274, symBinAddr: 0x1D898, symSize: 0x8 }
  - { offsetInCU: 0x36F67, offset: 0xCF035, size: 0x8, addend: 0x0, symName: '__ZNKSt3__110__function6__funcIZN5agora3rtc9extension26SenseTimeExtensionDelegateC1EvE3$_0NS_9allocatorIS6_EEFiRKN9rapidjson15GenericDocumentINS9_4UTF8IcEENS9_19MemoryPoolAllocatorINS9_12CrtAllocatorEEESE_EEEE6targetERKSt9type_info', symObjAddr: 0x527C, symBinAddr: 0x1D8A0, symSize: 0x3C }
  - { offsetInCU: 0x37002, offset: 0xCF0D0, size: 0x8, addend: 0x0, symName: '__ZNKSt3__110__function6__funcIZN5agora3rtc9extension26SenseTimeExtensionDelegateC1EvE3$_0NS_9allocatorIS6_EEFiRKN9rapidjson15GenericDocumentINS9_4UTF8IcEENS9_19MemoryPoolAllocatorINS9_12CrtAllocatorEEESE_EEEE11target_typeEv', symObjAddr: 0x52B8, symBinAddr: 0x1D8DC, symSize: 0xC }
  - { offsetInCU: 0x370D1, offset: 0xCF19F, size: 0x8, addend: 0x0, symName: __ZNSt3__16__treeINS_12__value_typeINS_12basic_stringIcNS_11char_traitsIcEENS_9allocatorIcEEEENS_8functionIFiRKN9rapidjson15GenericDocumentINS9_4UTF8IcEENS9_19MemoryPoolAllocatorINS9_12CrtAllocatorEEESE_EEEEEEENS_19__map_value_compareIS7_SL_NS_4lessIS7_EELb1EEENS5_ISL_EEE16__construct_nodeIJNS_4pairIPKcSK_EEEEENS_10unique_ptrINS_11__tree_nodeISL_PvEENS_22__tree_node_destructorINS5_IS10_EEEEEEDpOT_, symObjAddr: 0x53A4, symBinAddr: 0x1D980, symSize: 0x78 }
  - { offsetInCU: 0x3744B, offset: 0xCF519, size: 0x8, addend: 0x0, symName: __ZNSt3__16__treeINS_12__value_typeINS_12basic_stringIcNS_11char_traitsIcEENS_9allocatorIcEEEENS_8functionIFiRKN9rapidjson15GenericDocumentINS9_4UTF8IcEENS9_19MemoryPoolAllocatorINS9_12CrtAllocatorEEESE_EEEEEEENS_19__map_value_compareIS7_SL_NS_4lessIS7_EELb1EEENS5_ISL_EEE12__find_equalISL_EERPNS_16__tree_node_baseIPvEERPNS_15__tree_end_nodeISW_EERKT_, symObjAddr: 0x541C, symBinAddr: 0x1D9F8, symSize: 0x90 }
  - { offsetInCU: 0x375CB, offset: 0xCF699, size: 0x8, addend: 0x0, symName: __ZNSt3__16__treeINS_12__value_typeINS_12basic_stringIcNS_11char_traitsIcEENS_9allocatorIcEEEENS_8functionIFiRKN9rapidjson15GenericDocumentINS9_4UTF8IcEENS9_19MemoryPoolAllocatorINS9_12CrtAllocatorEEESE_EEEEEEENS_19__map_value_compareIS7_SL_NS_4lessIS7_EELb1EEENS5_ISL_EEE16__insert_node_atEPNS_15__tree_end_nodeIPNS_16__tree_node_baseIPvEEEERSW_SW_, symObjAddr: 0x54AC, symBinAddr: 0x1DA88, symSize: 0x54 }
  - { offsetInCU: 0x37633, offset: 0xCF701, size: 0x8, addend: 0x0, symName: __ZNSt3__110unique_ptrINS_11__tree_nodeINS_12__value_typeINS_12basic_stringIcNS_11char_traitsIcEENS_9allocatorIcEEEENS_8functionIFiRKN9rapidjson15GenericDocumentINSA_4UTF8IcEENSA_19MemoryPoolAllocatorINSA_12CrtAllocatorEEESF_EEEEEEEPvEENS_22__tree_node_destructorINS6_ISO_EEEEE5resetB7v160006EPSO_, symObjAddr: 0x5500, symBinAddr: 0x1DADC, symSize: 0x44 }
  - { offsetInCU: 0x37A87, offset: 0xCFB55, size: 0x8, addend: 0x0, symName: '__ZNSt3__110__function6__funcIZN5agora3rtc9extension26SenseTimeExtensionDelegateC1EvE3$_1NS_9allocatorIS6_EEFiRKN9rapidjson15GenericDocumentINS9_4UTF8IcEENS9_19MemoryPoolAllocatorINS9_12CrtAllocatorEEESE_EEEED1Ev', symObjAddr: 0x5544, symBinAddr: 0x1DB20, symSize: 0x4 }
  - { offsetInCU: 0x37AB3, offset: 0xCFB81, size: 0x8, addend: 0x0, symName: '__ZNSt3__110__function6__funcIZN5agora3rtc9extension26SenseTimeExtensionDelegateC1EvE3$_1NS_9allocatorIS6_EEFiRKN9rapidjson15GenericDocumentINS9_4UTF8IcEENS9_19MemoryPoolAllocatorINS9_12CrtAllocatorEEESE_EEEED0Ev', symObjAddr: 0x5548, symBinAddr: 0x1DB24, symSize: 0x4 }
  - { offsetInCU: 0x37CB7, offset: 0xCFD85, size: 0x8, addend: 0x0, symName: '__ZNKSt3__110__function6__funcIZN5agora3rtc9extension26SenseTimeExtensionDelegateC1EvE3$_1NS_9allocatorIS6_EEFiRKN9rapidjson15GenericDocumentINS9_4UTF8IcEENS9_19MemoryPoolAllocatorINS9_12CrtAllocatorEEESE_EEEE7__cloneEv', symObjAddr: 0x554C, symBinAddr: 0x1DB28, symSize: 0x34 }
  - { offsetInCU: 0x37FB5, offset: 0xD0083, size: 0x8, addend: 0x0, symName: '__ZNKSt3__110__function6__funcIZN5agora3rtc9extension26SenseTimeExtensionDelegateC1EvE3$_1NS_9allocatorIS6_EEFiRKN9rapidjson15GenericDocumentINS9_4UTF8IcEENS9_19MemoryPoolAllocatorINS9_12CrtAllocatorEEESE_EEEE7__cloneEPNS0_6__baseISJ_EE', symObjAddr: 0x5580, symBinAddr: 0x1DB5C, symSize: 0x14 }
  - { offsetInCU: 0x37FED, offset: 0xD00BB, size: 0x8, addend: 0x0, symName: '__ZNKSt3__110__function6__funcIZN5agora3rtc9extension26SenseTimeExtensionDelegateC1EvE3$_1NS_9allocatorIS6_EEFiRKN9rapidjson15GenericDocumentINS9_4UTF8IcEENS9_19MemoryPoolAllocatorINS9_12CrtAllocatorEEESE_EEEE7__cloneEPNS0_6__baseISJ_EE', symObjAddr: 0x5580, symBinAddr: 0x1DB5C, symSize: 0x14 }
  - { offsetInCU: 0x3801C, offset: 0xD00EA, size: 0x8, addend: 0x0, symName: '__ZNKSt3__110__function6__funcIZN5agora3rtc9extension26SenseTimeExtensionDelegateC1EvE3$_1NS_9allocatorIS6_EEFiRKN9rapidjson15GenericDocumentINS9_4UTF8IcEENS9_19MemoryPoolAllocatorINS9_12CrtAllocatorEEESE_EEEE7__cloneEPNS0_6__baseISJ_EE', symObjAddr: 0x5580, symBinAddr: 0x1DB5C, symSize: 0x14 }
  - { offsetInCU: 0x3804B, offset: 0xD0119, size: 0x8, addend: 0x0, symName: '__ZNKSt3__110__function6__funcIZN5agora3rtc9extension26SenseTimeExtensionDelegateC1EvE3$_1NS_9allocatorIS6_EEFiRKN9rapidjson15GenericDocumentINS9_4UTF8IcEENS9_19MemoryPoolAllocatorINS9_12CrtAllocatorEEESE_EEEE7__cloneEPNS0_6__baseISJ_EE', symObjAddr: 0x5580, symBinAddr: 0x1DB5C, symSize: 0x14 }
  - { offsetInCU: 0x38061, offset: 0xD012F, size: 0x8, addend: 0x0, symName: '__ZNKSt3__110__function6__funcIZN5agora3rtc9extension26SenseTimeExtensionDelegateC1EvE3$_1NS_9allocatorIS6_EEFiRKN9rapidjson15GenericDocumentINS9_4UTF8IcEENS9_19MemoryPoolAllocatorINS9_12CrtAllocatorEEESE_EEEE7__cloneEPNS0_6__baseISJ_EE', symObjAddr: 0x5580, symBinAddr: 0x1DB5C, symSize: 0x14 }
  - { offsetInCU: 0x38075, offset: 0xD0143, size: 0x8, addend: 0x0, symName: '__ZNKSt3__110__function6__funcIZN5agora3rtc9extension26SenseTimeExtensionDelegateC1EvE3$_1NS_9allocatorIS6_EEFiRKN9rapidjson15GenericDocumentINS9_4UTF8IcEENS9_19MemoryPoolAllocatorINS9_12CrtAllocatorEEESE_EEEE7__cloneEPNS0_6__baseISJ_EE', symObjAddr: 0x5580, symBinAddr: 0x1DB5C, symSize: 0x14 }
  - { offsetInCU: 0x38089, offset: 0xD0157, size: 0x8, addend: 0x0, symName: '__ZNKSt3__110__function6__funcIZN5agora3rtc9extension26SenseTimeExtensionDelegateC1EvE3$_1NS_9allocatorIS6_EEFiRKN9rapidjson15GenericDocumentINS9_4UTF8IcEENS9_19MemoryPoolAllocatorINS9_12CrtAllocatorEEESE_EEEE7__cloneEPNS0_6__baseISJ_EE', symObjAddr: 0x5580, symBinAddr: 0x1DB5C, symSize: 0x14 }
  - { offsetInCU: 0x3809E, offset: 0xD016C, size: 0x8, addend: 0x0, symName: '__ZNKSt3__110__function6__funcIZN5agora3rtc9extension26SenseTimeExtensionDelegateC1EvE3$_1NS_9allocatorIS6_EEFiRKN9rapidjson15GenericDocumentINS9_4UTF8IcEENS9_19MemoryPoolAllocatorINS9_12CrtAllocatorEEESE_EEEE7__cloneEPNS0_6__baseISJ_EE', symObjAddr: 0x5580, symBinAddr: 0x1DB5C, symSize: 0x14 }
  - { offsetInCU: 0x380B5, offset: 0xD0183, size: 0x8, addend: 0x0, symName: '__ZNSt3__110__function6__funcIZN5agora3rtc9extension26SenseTimeExtensionDelegateC1EvE3$_1NS_9allocatorIS6_EEFiRKN9rapidjson15GenericDocumentINS9_4UTF8IcEENS9_19MemoryPoolAllocatorINS9_12CrtAllocatorEEESE_EEEE7destroyEv', symObjAddr: 0x5594, symBinAddr: 0x1DB70, symSize: 0x4 }
  - { offsetInCU: 0x38106, offset: 0xD01D4, size: 0x8, addend: 0x0, symName: '__ZNSt3__110__function6__funcIZN5agora3rtc9extension26SenseTimeExtensionDelegateC1EvE3$_1NS_9allocatorIS6_EEFiRKN9rapidjson15GenericDocumentINS9_4UTF8IcEENS9_19MemoryPoolAllocatorINS9_12CrtAllocatorEEESE_EEEE18destroy_deallocateEv', symObjAddr: 0x5598, symBinAddr: 0x1DB74, symSize: 0x4 }
  - { offsetInCU: 0x3813C, offset: 0xD020A, size: 0x8, addend: 0x0, symName: '__ZNSt3__110__function6__funcIZN5agora3rtc9extension26SenseTimeExtensionDelegateC1EvE3$_1NS_9allocatorIS6_EEFiRKN9rapidjson15GenericDocumentINS9_4UTF8IcEENS9_19MemoryPoolAllocatorINS9_12CrtAllocatorEEESE_EEEE18destroy_deallocateEv', symObjAddr: 0x5598, symBinAddr: 0x1DB74, symSize: 0x4 }
  - { offsetInCU: 0x38160, offset: 0xD022E, size: 0x8, addend: 0x0, symName: '__ZNSt3__110__function6__funcIZN5agora3rtc9extension26SenseTimeExtensionDelegateC1EvE3$_1NS_9allocatorIS6_EEFiRKN9rapidjson15GenericDocumentINS9_4UTF8IcEENS9_19MemoryPoolAllocatorINS9_12CrtAllocatorEEESE_EEEE18destroy_deallocateEv', symObjAddr: 0x5598, symBinAddr: 0x1DB74, symSize: 0x4 }
  - { offsetInCU: 0x3818C, offset: 0xD025A, size: 0x8, addend: 0x0, symName: '__ZNSt3__110__function6__funcIZN5agora3rtc9extension26SenseTimeExtensionDelegateC1EvE3$_1NS_9allocatorIS6_EEFiRKN9rapidjson15GenericDocumentINS9_4UTF8IcEENS9_19MemoryPoolAllocatorINS9_12CrtAllocatorEEESE_EEEE18destroy_deallocateEv', symObjAddr: 0x5598, symBinAddr: 0x1DB74, symSize: 0x4 }
  - { offsetInCU: 0x381B3, offset: 0xD0281, size: 0x8, addend: 0x0, symName: '__ZNSt3__110__function6__funcIZN5agora3rtc9extension26SenseTimeExtensionDelegateC1EvE3$_1NS_9allocatorIS6_EEFiRKN9rapidjson15GenericDocumentINS9_4UTF8IcEENS9_19MemoryPoolAllocatorINS9_12CrtAllocatorEEESE_EEEE18destroy_deallocateEv', symObjAddr: 0x5598, symBinAddr: 0x1DB74, symSize: 0x4 }
  - { offsetInCU: 0x3825E, offset: 0xD032C, size: 0x8, addend: 0x0, symName: '__ZNSt3__110__function6__funcIZN5agora3rtc9extension26SenseTimeExtensionDelegateC1EvE3$_1NS_9allocatorIS6_EEFiRKN9rapidjson15GenericDocumentINS9_4UTF8IcEENS9_19MemoryPoolAllocatorINS9_12CrtAllocatorEEESE_EEEEclESI_', symObjAddr: 0x559C, symBinAddr: 0x1DB78, symSize: 0x8 }
  - { offsetInCU: 0x382F9, offset: 0xD03C7, size: 0x8, addend: 0x0, symName: '__ZNKSt3__110__function6__funcIZN5agora3rtc9extension26SenseTimeExtensionDelegateC1EvE3$_1NS_9allocatorIS6_EEFiRKN9rapidjson15GenericDocumentINS9_4UTF8IcEENS9_19MemoryPoolAllocatorINS9_12CrtAllocatorEEESE_EEEE6targetERKSt9type_info', symObjAddr: 0x55A4, symBinAddr: 0x1DB80, symSize: 0x3C }
  - { offsetInCU: 0x38348, offset: 0xD0416, size: 0x8, addend: 0x0, symName: '__ZNKSt3__110__function6__funcIZN5agora3rtc9extension26SenseTimeExtensionDelegateC1EvE3$_1NS_9allocatorIS6_EEFiRKN9rapidjson15GenericDocumentINS9_4UTF8IcEENS9_19MemoryPoolAllocatorINS9_12CrtAllocatorEEESE_EEEE11target_typeEv', symObjAddr: 0x55E0, symBinAddr: 0x1DBBC, symSize: 0xC }
  - { offsetInCU: 0x3836D, offset: 0xD043B, size: 0x8, addend: 0x0, symName: '__ZNSt3__110__function6__funcIZN5agora3rtc9extension26SenseTimeExtensionDelegateC1EvE3$_2NS_9allocatorIS6_EEFiRKN9rapidjson15GenericDocumentINS9_4UTF8IcEENS9_19MemoryPoolAllocatorINS9_12CrtAllocatorEEESE_EEEED1Ev', symObjAddr: 0x55EC, symBinAddr: 0x1DBC8, symSize: 0x4 }
  - { offsetInCU: 0x38399, offset: 0xD0467, size: 0x8, addend: 0x0, symName: '__ZNSt3__110__function6__funcIZN5agora3rtc9extension26SenseTimeExtensionDelegateC1EvE3$_2NS_9allocatorIS6_EEFiRKN9rapidjson15GenericDocumentINS9_4UTF8IcEENS9_19MemoryPoolAllocatorINS9_12CrtAllocatorEEESE_EEEED0Ev', symObjAddr: 0x55F0, symBinAddr: 0x1DBCC, symSize: 0x4 }
  - { offsetInCU: 0x3859D, offset: 0xD066B, size: 0x8, addend: 0x0, symName: '__ZNKSt3__110__function6__funcIZN5agora3rtc9extension26SenseTimeExtensionDelegateC1EvE3$_2NS_9allocatorIS6_EEFiRKN9rapidjson15GenericDocumentINS9_4UTF8IcEENS9_19MemoryPoolAllocatorINS9_12CrtAllocatorEEESE_EEEE7__cloneEv', symObjAddr: 0x55F4, symBinAddr: 0x1DBD0, symSize: 0x34 }
  - { offsetInCU: 0x3889B, offset: 0xD0969, size: 0x8, addend: 0x0, symName: '__ZNKSt3__110__function6__funcIZN5agora3rtc9extension26SenseTimeExtensionDelegateC1EvE3$_2NS_9allocatorIS6_EEFiRKN9rapidjson15GenericDocumentINS9_4UTF8IcEENS9_19MemoryPoolAllocatorINS9_12CrtAllocatorEEESE_EEEE7__cloneEPNS0_6__baseISJ_EE', symObjAddr: 0x5628, symBinAddr: 0x1DC04, symSize: 0x14 }
  - { offsetInCU: 0x388D3, offset: 0xD09A1, size: 0x8, addend: 0x0, symName: '__ZNKSt3__110__function6__funcIZN5agora3rtc9extension26SenseTimeExtensionDelegateC1EvE3$_2NS_9allocatorIS6_EEFiRKN9rapidjson15GenericDocumentINS9_4UTF8IcEENS9_19MemoryPoolAllocatorINS9_12CrtAllocatorEEESE_EEEE7__cloneEPNS0_6__baseISJ_EE', symObjAddr: 0x5628, symBinAddr: 0x1DC04, symSize: 0x14 }
  - { offsetInCU: 0x38902, offset: 0xD09D0, size: 0x8, addend: 0x0, symName: '__ZNKSt3__110__function6__funcIZN5agora3rtc9extension26SenseTimeExtensionDelegateC1EvE3$_2NS_9allocatorIS6_EEFiRKN9rapidjson15GenericDocumentINS9_4UTF8IcEENS9_19MemoryPoolAllocatorINS9_12CrtAllocatorEEESE_EEEE7__cloneEPNS0_6__baseISJ_EE', symObjAddr: 0x5628, symBinAddr: 0x1DC04, symSize: 0x14 }
  - { offsetInCU: 0x38931, offset: 0xD09FF, size: 0x8, addend: 0x0, symName: '__ZNKSt3__110__function6__funcIZN5agora3rtc9extension26SenseTimeExtensionDelegateC1EvE3$_2NS_9allocatorIS6_EEFiRKN9rapidjson15GenericDocumentINS9_4UTF8IcEENS9_19MemoryPoolAllocatorINS9_12CrtAllocatorEEESE_EEEE7__cloneEPNS0_6__baseISJ_EE', symObjAddr: 0x5628, symBinAddr: 0x1DC04, symSize: 0x14 }
  - { offsetInCU: 0x38947, offset: 0xD0A15, size: 0x8, addend: 0x0, symName: '__ZNKSt3__110__function6__funcIZN5agora3rtc9extension26SenseTimeExtensionDelegateC1EvE3$_2NS_9allocatorIS6_EEFiRKN9rapidjson15GenericDocumentINS9_4UTF8IcEENS9_19MemoryPoolAllocatorINS9_12CrtAllocatorEEESE_EEEE7__cloneEPNS0_6__baseISJ_EE', symObjAddr: 0x5628, symBinAddr: 0x1DC04, symSize: 0x14 }
  - { offsetInCU: 0x3895B, offset: 0xD0A29, size: 0x8, addend: 0x0, symName: '__ZNKSt3__110__function6__funcIZN5agora3rtc9extension26SenseTimeExtensionDelegateC1EvE3$_2NS_9allocatorIS6_EEFiRKN9rapidjson15GenericDocumentINS9_4UTF8IcEENS9_19MemoryPoolAllocatorINS9_12CrtAllocatorEEESE_EEEE7__cloneEPNS0_6__baseISJ_EE', symObjAddr: 0x5628, symBinAddr: 0x1DC04, symSize: 0x14 }
  - { offsetInCU: 0x3896F, offset: 0xD0A3D, size: 0x8, addend: 0x0, symName: '__ZNKSt3__110__function6__funcIZN5agora3rtc9extension26SenseTimeExtensionDelegateC1EvE3$_2NS_9allocatorIS6_EEFiRKN9rapidjson15GenericDocumentINS9_4UTF8IcEENS9_19MemoryPoolAllocatorINS9_12CrtAllocatorEEESE_EEEE7__cloneEPNS0_6__baseISJ_EE', symObjAddr: 0x5628, symBinAddr: 0x1DC04, symSize: 0x14 }
  - { offsetInCU: 0x38984, offset: 0xD0A52, size: 0x8, addend: 0x0, symName: '__ZNKSt3__110__function6__funcIZN5agora3rtc9extension26SenseTimeExtensionDelegateC1EvE3$_2NS_9allocatorIS6_EEFiRKN9rapidjson15GenericDocumentINS9_4UTF8IcEENS9_19MemoryPoolAllocatorINS9_12CrtAllocatorEEESE_EEEE7__cloneEPNS0_6__baseISJ_EE', symObjAddr: 0x5628, symBinAddr: 0x1DC04, symSize: 0x14 }
  - { offsetInCU: 0x3899B, offset: 0xD0A69, size: 0x8, addend: 0x0, symName: '__ZNSt3__110__function6__funcIZN5agora3rtc9extension26SenseTimeExtensionDelegateC1EvE3$_2NS_9allocatorIS6_EEFiRKN9rapidjson15GenericDocumentINS9_4UTF8IcEENS9_19MemoryPoolAllocatorINS9_12CrtAllocatorEEESE_EEEE7destroyEv', symObjAddr: 0x563C, symBinAddr: 0x1DC18, symSize: 0x4 }
  - { offsetInCU: 0x389EC, offset: 0xD0ABA, size: 0x8, addend: 0x0, symName: '__ZNSt3__110__function6__funcIZN5agora3rtc9extension26SenseTimeExtensionDelegateC1EvE3$_2NS_9allocatorIS6_EEFiRKN9rapidjson15GenericDocumentINS9_4UTF8IcEENS9_19MemoryPoolAllocatorINS9_12CrtAllocatorEEESE_EEEE18destroy_deallocateEv', symObjAddr: 0x5640, symBinAddr: 0x1DC1C, symSize: 0x4 }
  - { offsetInCU: 0x38A22, offset: 0xD0AF0, size: 0x8, addend: 0x0, symName: '__ZNSt3__110__function6__funcIZN5agora3rtc9extension26SenseTimeExtensionDelegateC1EvE3$_2NS_9allocatorIS6_EEFiRKN9rapidjson15GenericDocumentINS9_4UTF8IcEENS9_19MemoryPoolAllocatorINS9_12CrtAllocatorEEESE_EEEE18destroy_deallocateEv', symObjAddr: 0x5640, symBinAddr: 0x1DC1C, symSize: 0x4 }
  - { offsetInCU: 0x38A46, offset: 0xD0B14, size: 0x8, addend: 0x0, symName: '__ZNSt3__110__function6__funcIZN5agora3rtc9extension26SenseTimeExtensionDelegateC1EvE3$_2NS_9allocatorIS6_EEFiRKN9rapidjson15GenericDocumentINS9_4UTF8IcEENS9_19MemoryPoolAllocatorINS9_12CrtAllocatorEEESE_EEEE18destroy_deallocateEv', symObjAddr: 0x5640, symBinAddr: 0x1DC1C, symSize: 0x4 }
  - { offsetInCU: 0x38A72, offset: 0xD0B40, size: 0x8, addend: 0x0, symName: '__ZNSt3__110__function6__funcIZN5agora3rtc9extension26SenseTimeExtensionDelegateC1EvE3$_2NS_9allocatorIS6_EEFiRKN9rapidjson15GenericDocumentINS9_4UTF8IcEENS9_19MemoryPoolAllocatorINS9_12CrtAllocatorEEESE_EEEE18destroy_deallocateEv', symObjAddr: 0x5640, symBinAddr: 0x1DC1C, symSize: 0x4 }
  - { offsetInCU: 0x38A99, offset: 0xD0B67, size: 0x8, addend: 0x0, symName: '__ZNSt3__110__function6__funcIZN5agora3rtc9extension26SenseTimeExtensionDelegateC1EvE3$_2NS_9allocatorIS6_EEFiRKN9rapidjson15GenericDocumentINS9_4UTF8IcEENS9_19MemoryPoolAllocatorINS9_12CrtAllocatorEEESE_EEEE18destroy_deallocateEv', symObjAddr: 0x5640, symBinAddr: 0x1DC1C, symSize: 0x4 }
  - { offsetInCU: 0x38B70, offset: 0xD0C3E, size: 0x8, addend: 0x0, symName: '__ZNSt3__110__function6__funcIZN5agora3rtc9extension26SenseTimeExtensionDelegateC1EvE3$_2NS_9allocatorIS6_EEFiRKN9rapidjson15GenericDocumentINS9_4UTF8IcEENS9_19MemoryPoolAllocatorINS9_12CrtAllocatorEEESE_EEEEclESI_', symObjAddr: 0x5644, symBinAddr: 0x1DC20, symSize: 0x84 }
  - { offsetInCU: 0x38D13, offset: 0xD0DE1, size: 0x8, addend: 0x0, symName: __ZNK9rapidjson12GenericValueINS_4UTF8IcEENS_19MemoryPoolAllocatorINS_12CrtAllocatorEEEE9HasMemberEPKc, symObjAddr: 0x5710, symBinAddr: 0x1DCEC, symSize: 0x58 }
  - { offsetInCU: 0x38DFF, offset: 0xD0ECD, size: 0x8, addend: 0x0, symName: __ZN9rapidjson12GenericValueINS_4UTF8IcEENS_19MemoryPoolAllocatorINS_12CrtAllocatorEEEE10FindMemberEPKc, symObjAddr: 0x5768, symBinAddr: 0x1DD44, symSize: 0x8C }
  - { offsetInCU: 0x38E09, offset: 0xD0ED7, size: 0x8, addend: 0x0, symName: __ZN9rapidjson12GenericValueINS_4UTF8IcEENS_19MemoryPoolAllocatorINS_12CrtAllocatorEEEEixIKcEENS_8internal9DisableIfINS9_15RemoveSfinaeTagIPFRNS9_9SfinaeTagENS9_7NotExprINS9_6IsSameINS9_11RemoveConstIT_E4TypeEcEEEEEE4TypeERS6_E4TypeEPSH_, symObjAddr: 0x5968, symBinAddr: 0x1DF44, symSize: 0x84 }
  - { offsetInCU: 0x38F93, offset: 0xD1061, size: 0x8, addend: 0x0, symName: '__ZNKSt3__110__function6__funcIZN5agora3rtc9extension26SenseTimeExtensionDelegateC1EvE3$_2NS_9allocatorIS6_EEFiRKN9rapidjson15GenericDocumentINS9_4UTF8IcEENS9_19MemoryPoolAllocatorINS9_12CrtAllocatorEEESE_EEEE6targetERKSt9type_info', symObjAddr: 0x56C8, symBinAddr: 0x1DCA4, symSize: 0x3C }
  - { offsetInCU: 0x38FE2, offset: 0xD10B0, size: 0x8, addend: 0x0, symName: '__ZNKSt3__110__function6__funcIZN5agora3rtc9extension26SenseTimeExtensionDelegateC1EvE3$_2NS_9allocatorIS6_EEFiRKN9rapidjson15GenericDocumentINS9_4UTF8IcEENS9_19MemoryPoolAllocatorINS9_12CrtAllocatorEEESE_EEEE11target_typeEv', symObjAddr: 0x5704, symBinAddr: 0x1DCE0, symSize: 0xC }
  - { offsetInCU: 0x3905E, offset: 0xD112C, size: 0x8, addend: 0x0, symName: __ZN9rapidjson12GenericValueINS_4UTF8IcEENS_19MemoryPoolAllocatorINS_12CrtAllocatorEEEE10FindMemberEPKc, symObjAddr: 0x5768, symBinAddr: 0x1DD44, symSize: 0x8C }
  - { offsetInCU: 0x391E5, offset: 0xD12B3, size: 0x8, addend: 0x0, symName: __ZNK9rapidjson12GenericValueINS_4UTF8IcEENS_19MemoryPoolAllocatorINS_12CrtAllocatorEEEE9HasMemberEPKc.cold.1, symObjAddr: 0x8A30, symBinAddr: 0x92B2A0, symSize: 0x28 }
  - { offsetInCU: 0x392B0, offset: 0xD137E, size: 0x8, addend: 0x0, symName: __ZN9rapidjson16GenericStringRefIcE13NotNullStrLenEPKc, symObjAddr: 0x5820, symBinAddr: 0x1DDFC, symSize: 0x20 }
  - { offsetInCU: 0x39309, offset: 0xD13D7, size: 0x8, addend: 0x0, symName: __ZN9rapidjson12GenericValueINS_4UTF8IcEENS_19MemoryPoolAllocatorINS_12CrtAllocatorEEEE12DoFindMemberIS5_EENS_21GenericMemberIteratorILb0ES2_S5_EERKNS0_IS2_T_EE, symObjAddr: 0x5840, symBinAddr: 0x1DE1C, symSize: 0x8C }
  - { offsetInCU: 0x39313, offset: 0xD13E1, size: 0x8, addend: 0x0, symName: __ZN9rapidjson12GenericValueINS_4UTF8IcEENS_19MemoryPoolAllocatorINS_12CrtAllocatorEEEE10FindMemberIS5_EENS_21GenericMemberIteratorILb0ES2_S5_EERKNS0_IS2_T_EE, symObjAddr: 0x57F4, symBinAddr: 0x1DDD0, symSize: 0x2C }
  - { offsetInCU: 0x393A4, offset: 0xD1472, size: 0x8, addend: 0x0, symName: __ZN9rapidjson16GenericStringRefIcE13NotNullStrLenEPKc, symObjAddr: 0x5820, symBinAddr: 0x1DDFC, symSize: 0x20 }
  - { offsetInCU: 0x393B7, offset: 0xD1485, size: 0x8, addend: 0x0, symName: __ZN9rapidjson12GenericValueINS_4UTF8IcEENS_19MemoryPoolAllocatorINS_12CrtAllocatorEEEE12DoFindMemberIS5_EENS_21GenericMemberIteratorILb0ES2_S5_EERKNS0_IS2_T_EE, symObjAddr: 0x5840, symBinAddr: 0x1DE1C, symSize: 0x8C }
  - { offsetInCU: 0x394F0, offset: 0xD15BE, size: 0x8, addend: 0x0, symName: __ZNK9rapidjson12GenericValueINS_4UTF8IcEENS_19MemoryPoolAllocatorINS_12CrtAllocatorEEEE11StringEqualIS5_EEbRKNS0_IS2_T_EE, symObjAddr: 0x58CC, symBinAddr: 0x1DEA8, symSize: 0x9C }
  - { offsetInCU: 0x39504, offset: 0xD15D2, size: 0x8, addend: 0x0, symName: __ZN9rapidjson12GenericValueINS_4UTF8IcEENS_19MemoryPoolAllocatorINS_12CrtAllocatorEEEE10FindMemberIS5_EENS_21GenericMemberIteratorILb0ES2_S5_EERKNS0_IS2_T_EE.cold.2, symObjAddr: 0x8A80, symBinAddr: 0x92B2F0, symSize: 0x28 }
  - { offsetInCU: 0x3951C, offset: 0xD15EA, size: 0x8, addend: 0x0, symName: __ZN9rapidjson12GenericValueINS_4UTF8IcEENS_19MemoryPoolAllocatorINS_12CrtAllocatorEEEE10FindMemberIS5_EENS_21GenericMemberIteratorILb0ES2_S5_EERKNS0_IS2_T_EE.cold.1, symObjAddr: 0x8A58, symBinAddr: 0x92B2C8, symSize: 0x28 }
  - { offsetInCU: 0x39534, offset: 0xD1602, size: 0x8, addend: 0x0, symName: __ZN9rapidjson16GenericStringRefIcE13NotNullStrLenEPKc.cold.1, symObjAddr: 0x8AA8, symBinAddr: 0x92B318, symSize: 0x28 }
  - { offsetInCU: 0x39592, offset: 0xD1660, size: 0x8, addend: 0x0, symName: __ZNK9rapidjson12GenericValueINS_4UTF8IcEENS_19MemoryPoolAllocatorINS_12CrtAllocatorEEEE11StringEqualIS5_EEbRKNS0_IS2_T_EE, symObjAddr: 0x58CC, symBinAddr: 0x1DEA8, symSize: 0x9C }
  - { offsetInCU: 0x396A3, offset: 0xD1771, size: 0x8, addend: 0x0, symName: __ZN9rapidjson12GenericValueINS_4UTF8IcEENS_19MemoryPoolAllocatorINS_12CrtAllocatorEEEEixIKcEENS_8internal9DisableIfINS9_15RemoveSfinaeTagIPFRNS9_9SfinaeTagENS9_7NotExprINS9_6IsSameINS9_11RemoveConstIT_E4TypeEcEEEEEE4TypeERS6_E4TypeEPSH_, symObjAddr: 0x5968, symBinAddr: 0x1DF44, symSize: 0x84 }
  - { offsetInCU: 0x396B7, offset: 0xD1785, size: 0x8, addend: 0x0, symName: __ZN9rapidjson12GenericValueINS_4UTF8IcEENS_19MemoryPoolAllocatorINS_12CrtAllocatorEEEE12DoFindMemberIS5_EENS_21GenericMemberIteratorILb0ES2_S5_EERKNS0_IS2_T_EE.cold.1, symObjAddr: 0x8AD0, symBinAddr: 0x92B340, symSize: 0x28 }
  - { offsetInCU: 0x396E6, offset: 0xD17B4, size: 0x8, addend: 0x0, symName: __ZN9rapidjson12GenericValueINS_4UTF8IcEENS_19MemoryPoolAllocatorINS_12CrtAllocatorEEEE12DoFindMemberIS5_EENS_21GenericMemberIteratorILb0ES2_S5_EERKNS0_IS2_T_EE.cold.2, symObjAddr: 0x8AF8, symBinAddr: 0x92B368, symSize: 0x28 }
  - { offsetInCU: 0x39715, offset: 0xD17E3, size: 0x8, addend: 0x0, symName: __ZNK9rapidjson12GenericValueINS_4UTF8IcEENS_19MemoryPoolAllocatorINS_12CrtAllocatorEEEE11StringEqualIS5_EEbRKNS0_IS2_T_EE.cold.1, symObjAddr: 0x8B20, symBinAddr: 0x92B390, symSize: 0x28 }
  - { offsetInCU: 0x3972D, offset: 0xD17FB, size: 0x8, addend: 0x0, symName: __ZNK9rapidjson12GenericValueINS_4UTF8IcEENS_19MemoryPoolAllocatorINS_12CrtAllocatorEEEE11StringEqualIS5_EEbRKNS0_IS2_T_EE.cold.2, symObjAddr: 0x8B48, symBinAddr: 0x92B3B8, symSize: 0x28 }
  - { offsetInCU: 0x3977B, offset: 0xD1849, size: 0x8, addend: 0x0, symName: __ZN9rapidjson12GenericValueINS_4UTF8IcEENS_19MemoryPoolAllocatorINS_12CrtAllocatorEEEEixIS5_EERS6_RKNS0_IS2_T_EE.cold.2, symObjAddr: 0x8B98, symBinAddr: 0x92B408, symSize: 0x28 }
  - { offsetInCU: 0x397AA, offset: 0xD1878, size: 0x8, addend: 0x0, symName: __ZN9rapidjson12GenericValueINS_4UTF8IcEENS_19MemoryPoolAllocatorINS_12CrtAllocatorEEEEixIS5_EERS6_RKNS0_IS2_T_EE.cold.1, symObjAddr: 0x8B70, symBinAddr: 0x92B3E0, symSize: 0x28 }
  - { offsetInCU: 0x397C2, offset: 0xD1890, size: 0x8, addend: 0x0, symName: '__ZNSt3__110__function6__funcIZN5agora3rtc9extension26SenseTimeExtensionDelegateC1EvE3$_3NS_9allocatorIS6_EEFiRKN9rapidjson15GenericDocumentINS9_4UTF8IcEENS9_19MemoryPoolAllocatorINS9_12CrtAllocatorEEESE_EEEED1Ev', symObjAddr: 0x5A4C, symBinAddr: 0x1E028, symSize: 0x4 }
  - { offsetInCU: 0x397EE, offset: 0xD18BC, size: 0x8, addend: 0x0, symName: '__ZNSt3__110__function6__funcIZN5agora3rtc9extension26SenseTimeExtensionDelegateC1EvE3$_3NS_9allocatorIS6_EEFiRKN9rapidjson15GenericDocumentINS9_4UTF8IcEENS9_19MemoryPoolAllocatorINS9_12CrtAllocatorEEESE_EEEED0Ev', symObjAddr: 0x5A50, symBinAddr: 0x1E02C, symSize: 0x4 }
  - { offsetInCU: 0x399F2, offset: 0xD1AC0, size: 0x8, addend: 0x0, symName: '__ZNKSt3__110__function6__funcIZN5agora3rtc9extension26SenseTimeExtensionDelegateC1EvE3$_3NS_9allocatorIS6_EEFiRKN9rapidjson15GenericDocumentINS9_4UTF8IcEENS9_19MemoryPoolAllocatorINS9_12CrtAllocatorEEESE_EEEE7__cloneEv', symObjAddr: 0x5A54, symBinAddr: 0x1E030, symSize: 0x34 }
  - { offsetInCU: 0x39CF0, offset: 0xD1DBE, size: 0x8, addend: 0x0, symName: '__ZNKSt3__110__function6__funcIZN5agora3rtc9extension26SenseTimeExtensionDelegateC1EvE3$_3NS_9allocatorIS6_EEFiRKN9rapidjson15GenericDocumentINS9_4UTF8IcEENS9_19MemoryPoolAllocatorINS9_12CrtAllocatorEEESE_EEEE7__cloneEPNS0_6__baseISJ_EE', symObjAddr: 0x5A88, symBinAddr: 0x1E064, symSize: 0x14 }
  - { offsetInCU: 0x39D28, offset: 0xD1DF6, size: 0x8, addend: 0x0, symName: '__ZNKSt3__110__function6__funcIZN5agora3rtc9extension26SenseTimeExtensionDelegateC1EvE3$_3NS_9allocatorIS6_EEFiRKN9rapidjson15GenericDocumentINS9_4UTF8IcEENS9_19MemoryPoolAllocatorINS9_12CrtAllocatorEEESE_EEEE7__cloneEPNS0_6__baseISJ_EE', symObjAddr: 0x5A88, symBinAddr: 0x1E064, symSize: 0x14 }
  - { offsetInCU: 0x39D57, offset: 0xD1E25, size: 0x8, addend: 0x0, symName: '__ZNKSt3__110__function6__funcIZN5agora3rtc9extension26SenseTimeExtensionDelegateC1EvE3$_3NS_9allocatorIS6_EEFiRKN9rapidjson15GenericDocumentINS9_4UTF8IcEENS9_19MemoryPoolAllocatorINS9_12CrtAllocatorEEESE_EEEE7__cloneEPNS0_6__baseISJ_EE', symObjAddr: 0x5A88, symBinAddr: 0x1E064, symSize: 0x14 }
  - { offsetInCU: 0x39D86, offset: 0xD1E54, size: 0x8, addend: 0x0, symName: '__ZNKSt3__110__function6__funcIZN5agora3rtc9extension26SenseTimeExtensionDelegateC1EvE3$_3NS_9allocatorIS6_EEFiRKN9rapidjson15GenericDocumentINS9_4UTF8IcEENS9_19MemoryPoolAllocatorINS9_12CrtAllocatorEEESE_EEEE7__cloneEPNS0_6__baseISJ_EE', symObjAddr: 0x5A88, symBinAddr: 0x1E064, symSize: 0x14 }
  - { offsetInCU: 0x39D9C, offset: 0xD1E6A, size: 0x8, addend: 0x0, symName: '__ZNKSt3__110__function6__funcIZN5agora3rtc9extension26SenseTimeExtensionDelegateC1EvE3$_3NS_9allocatorIS6_EEFiRKN9rapidjson15GenericDocumentINS9_4UTF8IcEENS9_19MemoryPoolAllocatorINS9_12CrtAllocatorEEESE_EEEE7__cloneEPNS0_6__baseISJ_EE', symObjAddr: 0x5A88, symBinAddr: 0x1E064, symSize: 0x14 }
  - { offsetInCU: 0x39DB0, offset: 0xD1E7E, size: 0x8, addend: 0x0, symName: '__ZNKSt3__110__function6__funcIZN5agora3rtc9extension26SenseTimeExtensionDelegateC1EvE3$_3NS_9allocatorIS6_EEFiRKN9rapidjson15GenericDocumentINS9_4UTF8IcEENS9_19MemoryPoolAllocatorINS9_12CrtAllocatorEEESE_EEEE7__cloneEPNS0_6__baseISJ_EE', symObjAddr: 0x5A88, symBinAddr: 0x1E064, symSize: 0x14 }
  - { offsetInCU: 0x39DC4, offset: 0xD1E92, size: 0x8, addend: 0x0, symName: '__ZNKSt3__110__function6__funcIZN5agora3rtc9extension26SenseTimeExtensionDelegateC1EvE3$_3NS_9allocatorIS6_EEFiRKN9rapidjson15GenericDocumentINS9_4UTF8IcEENS9_19MemoryPoolAllocatorINS9_12CrtAllocatorEEESE_EEEE7__cloneEPNS0_6__baseISJ_EE', symObjAddr: 0x5A88, symBinAddr: 0x1E064, symSize: 0x14 }
  - { offsetInCU: 0x39DD9, offset: 0xD1EA7, size: 0x8, addend: 0x0, symName: '__ZNKSt3__110__function6__funcIZN5agora3rtc9extension26SenseTimeExtensionDelegateC1EvE3$_3NS_9allocatorIS6_EEFiRKN9rapidjson15GenericDocumentINS9_4UTF8IcEENS9_19MemoryPoolAllocatorINS9_12CrtAllocatorEEESE_EEEE7__cloneEPNS0_6__baseISJ_EE', symObjAddr: 0x5A88, symBinAddr: 0x1E064, symSize: 0x14 }
  - { offsetInCU: 0x39DF0, offset: 0xD1EBE, size: 0x8, addend: 0x0, symName: '__ZNSt3__110__function6__funcIZN5agora3rtc9extension26SenseTimeExtensionDelegateC1EvE3$_3NS_9allocatorIS6_EEFiRKN9rapidjson15GenericDocumentINS9_4UTF8IcEENS9_19MemoryPoolAllocatorINS9_12CrtAllocatorEEESE_EEEE7destroyEv', symObjAddr: 0x5A9C, symBinAddr: 0x1E078, symSize: 0x4 }
  - { offsetInCU: 0x39E41, offset: 0xD1F0F, size: 0x8, addend: 0x0, symName: '__ZNSt3__110__function6__funcIZN5agora3rtc9extension26SenseTimeExtensionDelegateC1EvE3$_3NS_9allocatorIS6_EEFiRKN9rapidjson15GenericDocumentINS9_4UTF8IcEENS9_19MemoryPoolAllocatorINS9_12CrtAllocatorEEESE_EEEE18destroy_deallocateEv', symObjAddr: 0x5AA0, symBinAddr: 0x1E07C, symSize: 0x4 }
  - { offsetInCU: 0x39E77, offset: 0xD1F45, size: 0x8, addend: 0x0, symName: '__ZNSt3__110__function6__funcIZN5agora3rtc9extension26SenseTimeExtensionDelegateC1EvE3$_3NS_9allocatorIS6_EEFiRKN9rapidjson15GenericDocumentINS9_4UTF8IcEENS9_19MemoryPoolAllocatorINS9_12CrtAllocatorEEESE_EEEE18destroy_deallocateEv', symObjAddr: 0x5AA0, symBinAddr: 0x1E07C, symSize: 0x4 }
  - { offsetInCU: 0x39E9B, offset: 0xD1F69, size: 0x8, addend: 0x0, symName: '__ZNSt3__110__function6__funcIZN5agora3rtc9extension26SenseTimeExtensionDelegateC1EvE3$_3NS_9allocatorIS6_EEFiRKN9rapidjson15GenericDocumentINS9_4UTF8IcEENS9_19MemoryPoolAllocatorINS9_12CrtAllocatorEEESE_EEEE18destroy_deallocateEv', symObjAddr: 0x5AA0, symBinAddr: 0x1E07C, symSize: 0x4 }
  - { offsetInCU: 0x39EC7, offset: 0xD1F95, size: 0x8, addend: 0x0, symName: '__ZNSt3__110__function6__funcIZN5agora3rtc9extension26SenseTimeExtensionDelegateC1EvE3$_3NS_9allocatorIS6_EEFiRKN9rapidjson15GenericDocumentINS9_4UTF8IcEENS9_19MemoryPoolAllocatorINS9_12CrtAllocatorEEESE_EEEE18destroy_deallocateEv', symObjAddr: 0x5AA0, symBinAddr: 0x1E07C, symSize: 0x4 }
  - { offsetInCU: 0x39EEE, offset: 0xD1FBC, size: 0x8, addend: 0x0, symName: '__ZNSt3__110__function6__funcIZN5agora3rtc9extension26SenseTimeExtensionDelegateC1EvE3$_3NS_9allocatorIS6_EEFiRKN9rapidjson15GenericDocumentINS9_4UTF8IcEENS9_19MemoryPoolAllocatorINS9_12CrtAllocatorEEESE_EEEE18destroy_deallocateEv', symObjAddr: 0x5AA0, symBinAddr: 0x1E07C, symSize: 0x4 }
  - { offsetInCU: 0x39FDC, offset: 0xD20AA, size: 0x8, addend: 0x0, symName: '__ZNSt3__110__function6__funcIZN5agora3rtc9extension26SenseTimeExtensionDelegateC1EvE3$_3NS_9allocatorIS6_EEFiRKN9rapidjson15GenericDocumentINS9_4UTF8IcEENS9_19MemoryPoolAllocatorINS9_12CrtAllocatorEEESE_EEEEclESI_', symObjAddr: 0x5AA4, symBinAddr: 0x1E080, symSize: 0xDC }
  - { offsetInCU: 0x3A248, offset: 0xD2316, size: 0x8, addend: 0x0, symName: '__ZNKSt3__110__function6__funcIZN5agora3rtc9extension26SenseTimeExtensionDelegateC1EvE3$_3NS_9allocatorIS6_EEFiRKN9rapidjson15GenericDocumentINS9_4UTF8IcEENS9_19MemoryPoolAllocatorINS9_12CrtAllocatorEEESE_EEEE6targetERKSt9type_info', symObjAddr: 0x5B80, symBinAddr: 0x1E15C, symSize: 0x3C }
  - { offsetInCU: 0x3A252, offset: 0xD2320, size: 0x8, addend: 0x0, symName: __ZNK9rapidjson12GenericValueINS_4UTF8IcEENS_19MemoryPoolAllocatorINS_12CrtAllocatorEEEE9GetDoubleEv, symObjAddr: 0x5BC8, symBinAddr: 0x1E1A4, symSize: 0x64 }
  - { offsetInCU: 0x3A2A7, offset: 0xD2375, size: 0x8, addend: 0x0, symName: '__ZNSt3__110__function6__funcIZN5agora3rtc9extension26SenseTimeExtensionDelegateC1EvE3$_4NS_9allocatorIS6_EEFiRKN9rapidjson15GenericDocumentINS9_4UTF8IcEENS9_19MemoryPoolAllocatorINS9_12CrtAllocatorEEESE_EEEED1Ev', symObjAddr: 0x5C2C, symBinAddr: 0x1E208, symSize: 0x4 }
  - { offsetInCU: 0x3A2B2, offset: 0xD2380, size: 0x8, addend: 0x0, symName: '__ZNSt3__110__function6__funcIZN5agora3rtc9extension26SenseTimeExtensionDelegateC1EvE3$_3NS_9allocatorIS6_EEFiRKN9rapidjson15GenericDocumentINS9_4UTF8IcEENS9_19MemoryPoolAllocatorINS9_12CrtAllocatorEEESE_EEEEclESI_.cold.1', symObjAddr: 0x8BC0, symBinAddr: 0x92B430, symSize: 0x24 }
  - { offsetInCU: 0x3A33B, offset: 0xD2409, size: 0x8, addend: 0x0, symName: '__ZNKSt3__110__function6__funcIZN5agora3rtc9extension26SenseTimeExtensionDelegateC1EvE3$_3NS_9allocatorIS6_EEFiRKN9rapidjson15GenericDocumentINS9_4UTF8IcEENS9_19MemoryPoolAllocatorINS9_12CrtAllocatorEEESE_EEEE6targetERKSt9type_info', symObjAddr: 0x5B80, symBinAddr: 0x1E15C, symSize: 0x3C }
  - { offsetInCU: 0x3A38A, offset: 0xD2458, size: 0x8, addend: 0x0, symName: '__ZNKSt3__110__function6__funcIZN5agora3rtc9extension26SenseTimeExtensionDelegateC1EvE3$_3NS_9allocatorIS6_EEFiRKN9rapidjson15GenericDocumentINS9_4UTF8IcEENS9_19MemoryPoolAllocatorINS9_12CrtAllocatorEEESE_EEEE11target_typeEv', symObjAddr: 0x5BBC, symBinAddr: 0x1E198, symSize: 0xC }
  - { offsetInCU: 0x3A3C5, offset: 0xD2493, size: 0x8, addend: 0x0, symName: __ZNK9rapidjson12GenericValueINS_4UTF8IcEENS_19MemoryPoolAllocatorINS_12CrtAllocatorEEEE9GetDoubleEv.cold.1, symObjAddr: 0x8BE4, symBinAddr: 0x92B454, symSize: 0x28 }
  - { offsetInCU: 0x3A3DD, offset: 0xD24AB, size: 0x8, addend: 0x0, symName: __ZNK9rapidjson12GenericValueINS_4UTF8IcEENS_19MemoryPoolAllocatorINS_12CrtAllocatorEEEE9GetDoubleEv.cold.2, symObjAddr: 0x8C0C, symBinAddr: 0x92B47C, symSize: 0x28 }
  - { offsetInCU: 0x3A3F5, offset: 0xD24C3, size: 0x8, addend: 0x0, symName: '__ZNSt3__110__function6__funcIZN5agora3rtc9extension26SenseTimeExtensionDelegateC1EvE3$_4NS_9allocatorIS6_EEFiRKN9rapidjson15GenericDocumentINS9_4UTF8IcEENS9_19MemoryPoolAllocatorINS9_12CrtAllocatorEEESE_EEEED1Ev', symObjAddr: 0x5C2C, symBinAddr: 0x1E208, symSize: 0x4 }
  - { offsetInCU: 0x3A421, offset: 0xD24EF, size: 0x8, addend: 0x0, symName: '__ZNSt3__110__function6__funcIZN5agora3rtc9extension26SenseTimeExtensionDelegateC1EvE3$_4NS_9allocatorIS6_EEFiRKN9rapidjson15GenericDocumentINS9_4UTF8IcEENS9_19MemoryPoolAllocatorINS9_12CrtAllocatorEEESE_EEEED0Ev', symObjAddr: 0x5C30, symBinAddr: 0x1E20C, symSize: 0x4 }
  - { offsetInCU: 0x3A625, offset: 0xD26F3, size: 0x8, addend: 0x0, symName: '__ZNKSt3__110__function6__funcIZN5agora3rtc9extension26SenseTimeExtensionDelegateC1EvE3$_4NS_9allocatorIS6_EEFiRKN9rapidjson15GenericDocumentINS9_4UTF8IcEENS9_19MemoryPoolAllocatorINS9_12CrtAllocatorEEESE_EEEE7__cloneEv', symObjAddr: 0x5C34, symBinAddr: 0x1E210, symSize: 0x34 }
  - { offsetInCU: 0x3A923, offset: 0xD29F1, size: 0x8, addend: 0x0, symName: '__ZNKSt3__110__function6__funcIZN5agora3rtc9extension26SenseTimeExtensionDelegateC1EvE3$_4NS_9allocatorIS6_EEFiRKN9rapidjson15GenericDocumentINS9_4UTF8IcEENS9_19MemoryPoolAllocatorINS9_12CrtAllocatorEEESE_EEEE7__cloneEPNS0_6__baseISJ_EE', symObjAddr: 0x5C68, symBinAddr: 0x1E244, symSize: 0x14 }
  - { offsetInCU: 0x3A95B, offset: 0xD2A29, size: 0x8, addend: 0x0, symName: '__ZNKSt3__110__function6__funcIZN5agora3rtc9extension26SenseTimeExtensionDelegateC1EvE3$_4NS_9allocatorIS6_EEFiRKN9rapidjson15GenericDocumentINS9_4UTF8IcEENS9_19MemoryPoolAllocatorINS9_12CrtAllocatorEEESE_EEEE7__cloneEPNS0_6__baseISJ_EE', symObjAddr: 0x5C68, symBinAddr: 0x1E244, symSize: 0x14 }
  - { offsetInCU: 0x3A98A, offset: 0xD2A58, size: 0x8, addend: 0x0, symName: '__ZNKSt3__110__function6__funcIZN5agora3rtc9extension26SenseTimeExtensionDelegateC1EvE3$_4NS_9allocatorIS6_EEFiRKN9rapidjson15GenericDocumentINS9_4UTF8IcEENS9_19MemoryPoolAllocatorINS9_12CrtAllocatorEEESE_EEEE7__cloneEPNS0_6__baseISJ_EE', symObjAddr: 0x5C68, symBinAddr: 0x1E244, symSize: 0x14 }
  - { offsetInCU: 0x3A9B9, offset: 0xD2A87, size: 0x8, addend: 0x0, symName: '__ZNKSt3__110__function6__funcIZN5agora3rtc9extension26SenseTimeExtensionDelegateC1EvE3$_4NS_9allocatorIS6_EEFiRKN9rapidjson15GenericDocumentINS9_4UTF8IcEENS9_19MemoryPoolAllocatorINS9_12CrtAllocatorEEESE_EEEE7__cloneEPNS0_6__baseISJ_EE', symObjAddr: 0x5C68, symBinAddr: 0x1E244, symSize: 0x14 }
  - { offsetInCU: 0x3A9CF, offset: 0xD2A9D, size: 0x8, addend: 0x0, symName: '__ZNKSt3__110__function6__funcIZN5agora3rtc9extension26SenseTimeExtensionDelegateC1EvE3$_4NS_9allocatorIS6_EEFiRKN9rapidjson15GenericDocumentINS9_4UTF8IcEENS9_19MemoryPoolAllocatorINS9_12CrtAllocatorEEESE_EEEE7__cloneEPNS0_6__baseISJ_EE', symObjAddr: 0x5C68, symBinAddr: 0x1E244, symSize: 0x14 }
  - { offsetInCU: 0x3A9E3, offset: 0xD2AB1, size: 0x8, addend: 0x0, symName: '__ZNKSt3__110__function6__funcIZN5agora3rtc9extension26SenseTimeExtensionDelegateC1EvE3$_4NS_9allocatorIS6_EEFiRKN9rapidjson15GenericDocumentINS9_4UTF8IcEENS9_19MemoryPoolAllocatorINS9_12CrtAllocatorEEESE_EEEE7__cloneEPNS0_6__baseISJ_EE', symObjAddr: 0x5C68, symBinAddr: 0x1E244, symSize: 0x14 }
  - { offsetInCU: 0x3A9F7, offset: 0xD2AC5, size: 0x8, addend: 0x0, symName: '__ZNKSt3__110__function6__funcIZN5agora3rtc9extension26SenseTimeExtensionDelegateC1EvE3$_4NS_9allocatorIS6_EEFiRKN9rapidjson15GenericDocumentINS9_4UTF8IcEENS9_19MemoryPoolAllocatorINS9_12CrtAllocatorEEESE_EEEE7__cloneEPNS0_6__baseISJ_EE', symObjAddr: 0x5C68, symBinAddr: 0x1E244, symSize: 0x14 }
  - { offsetInCU: 0x3AA0C, offset: 0xD2ADA, size: 0x8, addend: 0x0, symName: '__ZNKSt3__110__function6__funcIZN5agora3rtc9extension26SenseTimeExtensionDelegateC1EvE3$_4NS_9allocatorIS6_EEFiRKN9rapidjson15GenericDocumentINS9_4UTF8IcEENS9_19MemoryPoolAllocatorINS9_12CrtAllocatorEEESE_EEEE7__cloneEPNS0_6__baseISJ_EE', symObjAddr: 0x5C68, symBinAddr: 0x1E244, symSize: 0x14 }
  - { offsetInCU: 0x3AA23, offset: 0xD2AF1, size: 0x8, addend: 0x0, symName: '__ZNSt3__110__function6__funcIZN5agora3rtc9extension26SenseTimeExtensionDelegateC1EvE3$_4NS_9allocatorIS6_EEFiRKN9rapidjson15GenericDocumentINS9_4UTF8IcEENS9_19MemoryPoolAllocatorINS9_12CrtAllocatorEEESE_EEEE7destroyEv', symObjAddr: 0x5C7C, symBinAddr: 0x1E258, symSize: 0x4 }
  - { offsetInCU: 0x3AA74, offset: 0xD2B42, size: 0x8, addend: 0x0, symName: '__ZNSt3__110__function6__funcIZN5agora3rtc9extension26SenseTimeExtensionDelegateC1EvE3$_4NS_9allocatorIS6_EEFiRKN9rapidjson15GenericDocumentINS9_4UTF8IcEENS9_19MemoryPoolAllocatorINS9_12CrtAllocatorEEESE_EEEE18destroy_deallocateEv', symObjAddr: 0x5C80, symBinAddr: 0x1E25C, symSize: 0x4 }
  - { offsetInCU: 0x3AAAA, offset: 0xD2B78, size: 0x8, addend: 0x0, symName: '__ZNSt3__110__function6__funcIZN5agora3rtc9extension26SenseTimeExtensionDelegateC1EvE3$_4NS_9allocatorIS6_EEFiRKN9rapidjson15GenericDocumentINS9_4UTF8IcEENS9_19MemoryPoolAllocatorINS9_12CrtAllocatorEEESE_EEEE18destroy_deallocateEv', symObjAddr: 0x5C80, symBinAddr: 0x1E25C, symSize: 0x4 }
  - { offsetInCU: 0x3AACE, offset: 0xD2B9C, size: 0x8, addend: 0x0, symName: '__ZNSt3__110__function6__funcIZN5agora3rtc9extension26SenseTimeExtensionDelegateC1EvE3$_4NS_9allocatorIS6_EEFiRKN9rapidjson15GenericDocumentINS9_4UTF8IcEENS9_19MemoryPoolAllocatorINS9_12CrtAllocatorEEESE_EEEE18destroy_deallocateEv', symObjAddr: 0x5C80, symBinAddr: 0x1E25C, symSize: 0x4 }
  - { offsetInCU: 0x3AAFA, offset: 0xD2BC8, size: 0x8, addend: 0x0, symName: '__ZNSt3__110__function6__funcIZN5agora3rtc9extension26SenseTimeExtensionDelegateC1EvE3$_4NS_9allocatorIS6_EEFiRKN9rapidjson15GenericDocumentINS9_4UTF8IcEENS9_19MemoryPoolAllocatorINS9_12CrtAllocatorEEESE_EEEE18destroy_deallocateEv', symObjAddr: 0x5C80, symBinAddr: 0x1E25C, symSize: 0x4 }
  - { offsetInCU: 0x3AB21, offset: 0xD2BEF, size: 0x8, addend: 0x0, symName: '__ZNSt3__110__function6__funcIZN5agora3rtc9extension26SenseTimeExtensionDelegateC1EvE3$_4NS_9allocatorIS6_EEFiRKN9rapidjson15GenericDocumentINS9_4UTF8IcEENS9_19MemoryPoolAllocatorINS9_12CrtAllocatorEEESE_EEEE18destroy_deallocateEv', symObjAddr: 0x5C80, symBinAddr: 0x1E25C, symSize: 0x4 }
  - { offsetInCU: 0x3AC1C, offset: 0xD2CEA, size: 0x8, addend: 0x0, symName: '__ZNSt3__110__function6__funcIZN5agora3rtc9extension26SenseTimeExtensionDelegateC1EvE3$_4NS_9allocatorIS6_EEFiRKN9rapidjson15GenericDocumentINS9_4UTF8IcEENS9_19MemoryPoolAllocatorINS9_12CrtAllocatorEEESE_EEEEclESI_', symObjAddr: 0x5C84, symBinAddr: 0x1E260, symSize: 0x8C }
  - { offsetInCU: 0x3ADFB, offset: 0xD2EC9, size: 0x8, addend: 0x0, symName: '__ZNKSt3__110__function6__funcIZN5agora3rtc9extension26SenseTimeExtensionDelegateC1EvE3$_4NS_9allocatorIS6_EEFiRKN9rapidjson15GenericDocumentINS9_4UTF8IcEENS9_19MemoryPoolAllocatorINS9_12CrtAllocatorEEESE_EEEE6targetERKSt9type_info', symObjAddr: 0x5D10, symBinAddr: 0x1E2EC, symSize: 0x3C }
  - { offsetInCU: 0x3AE06, offset: 0xD2ED4, size: 0x8, addend: 0x0, symName: '__ZNSt3__110__function6__funcIZN5agora3rtc9extension26SenseTimeExtensionDelegateC1EvE3$_4NS_9allocatorIS6_EEFiRKN9rapidjson15GenericDocumentINS9_4UTF8IcEENS9_19MemoryPoolAllocatorINS9_12CrtAllocatorEEESE_EEEEclESI_.cold.1', symObjAddr: 0x8C34, symBinAddr: 0x92B4A4, symSize: 0x28 }
  - { offsetInCU: 0x3AE8F, offset: 0xD2F5D, size: 0x8, addend: 0x0, symName: '__ZNKSt3__110__function6__funcIZN5agora3rtc9extension26SenseTimeExtensionDelegateC1EvE3$_4NS_9allocatorIS6_EEFiRKN9rapidjson15GenericDocumentINS9_4UTF8IcEENS9_19MemoryPoolAllocatorINS9_12CrtAllocatorEEESE_EEEE6targetERKSt9type_info', symObjAddr: 0x5D10, symBinAddr: 0x1E2EC, symSize: 0x3C }
  - { offsetInCU: 0x3AEDE, offset: 0xD2FAC, size: 0x8, addend: 0x0, symName: '__ZNKSt3__110__function6__funcIZN5agora3rtc9extension26SenseTimeExtensionDelegateC1EvE3$_4NS_9allocatorIS6_EEFiRKN9rapidjson15GenericDocumentINS9_4UTF8IcEENS9_19MemoryPoolAllocatorINS9_12CrtAllocatorEEESE_EEEE11target_typeEv', symObjAddr: 0x5D4C, symBinAddr: 0x1E328, symSize: 0xC }
  - { offsetInCU: 0x3AF03, offset: 0xD2FD1, size: 0x8, addend: 0x0, symName: '__ZNSt3__110__function6__funcIZN5agora3rtc9extension26SenseTimeExtensionDelegateC1EvE3$_5NS_9allocatorIS6_EEFiRKN9rapidjson15GenericDocumentINS9_4UTF8IcEENS9_19MemoryPoolAllocatorINS9_12CrtAllocatorEEESE_EEEED1Ev', symObjAddr: 0x5D58, symBinAddr: 0x1E334, symSize: 0x4 }
  - { offsetInCU: 0x3AF2F, offset: 0xD2FFD, size: 0x8, addend: 0x0, symName: '__ZNSt3__110__function6__funcIZN5agora3rtc9extension26SenseTimeExtensionDelegateC1EvE3$_5NS_9allocatorIS6_EEFiRKN9rapidjson15GenericDocumentINS9_4UTF8IcEENS9_19MemoryPoolAllocatorINS9_12CrtAllocatorEEESE_EEEED0Ev', symObjAddr: 0x5D5C, symBinAddr: 0x1E338, symSize: 0x4 }
  - { offsetInCU: 0x3B133, offset: 0xD3201, size: 0x8, addend: 0x0, symName: '__ZNKSt3__110__function6__funcIZN5agora3rtc9extension26SenseTimeExtensionDelegateC1EvE3$_5NS_9allocatorIS6_EEFiRKN9rapidjson15GenericDocumentINS9_4UTF8IcEENS9_19MemoryPoolAllocatorINS9_12CrtAllocatorEEESE_EEEE7__cloneEv', symObjAddr: 0x5D60, symBinAddr: 0x1E33C, symSize: 0x34 }
  - { offsetInCU: 0x3B431, offset: 0xD34FF, size: 0x8, addend: 0x0, symName: '__ZNKSt3__110__function6__funcIZN5agora3rtc9extension26SenseTimeExtensionDelegateC1EvE3$_5NS_9allocatorIS6_EEFiRKN9rapidjson15GenericDocumentINS9_4UTF8IcEENS9_19MemoryPoolAllocatorINS9_12CrtAllocatorEEESE_EEEE7__cloneEPNS0_6__baseISJ_EE', symObjAddr: 0x5D94, symBinAddr: 0x1E370, symSize: 0x14 }
  - { offsetInCU: 0x3B469, offset: 0xD3537, size: 0x8, addend: 0x0, symName: '__ZNKSt3__110__function6__funcIZN5agora3rtc9extension26SenseTimeExtensionDelegateC1EvE3$_5NS_9allocatorIS6_EEFiRKN9rapidjson15GenericDocumentINS9_4UTF8IcEENS9_19MemoryPoolAllocatorINS9_12CrtAllocatorEEESE_EEEE7__cloneEPNS0_6__baseISJ_EE', symObjAddr: 0x5D94, symBinAddr: 0x1E370, symSize: 0x14 }
  - { offsetInCU: 0x3B498, offset: 0xD3566, size: 0x8, addend: 0x0, symName: '__ZNKSt3__110__function6__funcIZN5agora3rtc9extension26SenseTimeExtensionDelegateC1EvE3$_5NS_9allocatorIS6_EEFiRKN9rapidjson15GenericDocumentINS9_4UTF8IcEENS9_19MemoryPoolAllocatorINS9_12CrtAllocatorEEESE_EEEE7__cloneEPNS0_6__baseISJ_EE', symObjAddr: 0x5D94, symBinAddr: 0x1E370, symSize: 0x14 }
  - { offsetInCU: 0x3B4C7, offset: 0xD3595, size: 0x8, addend: 0x0, symName: '__ZNKSt3__110__function6__funcIZN5agora3rtc9extension26SenseTimeExtensionDelegateC1EvE3$_5NS_9allocatorIS6_EEFiRKN9rapidjson15GenericDocumentINS9_4UTF8IcEENS9_19MemoryPoolAllocatorINS9_12CrtAllocatorEEESE_EEEE7__cloneEPNS0_6__baseISJ_EE', symObjAddr: 0x5D94, symBinAddr: 0x1E370, symSize: 0x14 }
  - { offsetInCU: 0x3B4DD, offset: 0xD35AB, size: 0x8, addend: 0x0, symName: '__ZNKSt3__110__function6__funcIZN5agora3rtc9extension26SenseTimeExtensionDelegateC1EvE3$_5NS_9allocatorIS6_EEFiRKN9rapidjson15GenericDocumentINS9_4UTF8IcEENS9_19MemoryPoolAllocatorINS9_12CrtAllocatorEEESE_EEEE7__cloneEPNS0_6__baseISJ_EE', symObjAddr: 0x5D94, symBinAddr: 0x1E370, symSize: 0x14 }
  - { offsetInCU: 0x3B4F1, offset: 0xD35BF, size: 0x8, addend: 0x0, symName: '__ZNKSt3__110__function6__funcIZN5agora3rtc9extension26SenseTimeExtensionDelegateC1EvE3$_5NS_9allocatorIS6_EEFiRKN9rapidjson15GenericDocumentINS9_4UTF8IcEENS9_19MemoryPoolAllocatorINS9_12CrtAllocatorEEESE_EEEE7__cloneEPNS0_6__baseISJ_EE', symObjAddr: 0x5D94, symBinAddr: 0x1E370, symSize: 0x14 }
  - { offsetInCU: 0x3B505, offset: 0xD35D3, size: 0x8, addend: 0x0, symName: '__ZNKSt3__110__function6__funcIZN5agora3rtc9extension26SenseTimeExtensionDelegateC1EvE3$_5NS_9allocatorIS6_EEFiRKN9rapidjson15GenericDocumentINS9_4UTF8IcEENS9_19MemoryPoolAllocatorINS9_12CrtAllocatorEEESE_EEEE7__cloneEPNS0_6__baseISJ_EE', symObjAddr: 0x5D94, symBinAddr: 0x1E370, symSize: 0x14 }
  - { offsetInCU: 0x3B51A, offset: 0xD35E8, size: 0x8, addend: 0x0, symName: '__ZNKSt3__110__function6__funcIZN5agora3rtc9extension26SenseTimeExtensionDelegateC1EvE3$_5NS_9allocatorIS6_EEFiRKN9rapidjson15GenericDocumentINS9_4UTF8IcEENS9_19MemoryPoolAllocatorINS9_12CrtAllocatorEEESE_EEEE7__cloneEPNS0_6__baseISJ_EE', symObjAddr: 0x5D94, symBinAddr: 0x1E370, symSize: 0x14 }
  - { offsetInCU: 0x3B531, offset: 0xD35FF, size: 0x8, addend: 0x0, symName: '__ZNSt3__110__function6__funcIZN5agora3rtc9extension26SenseTimeExtensionDelegateC1EvE3$_5NS_9allocatorIS6_EEFiRKN9rapidjson15GenericDocumentINS9_4UTF8IcEENS9_19MemoryPoolAllocatorINS9_12CrtAllocatorEEESE_EEEE7destroyEv', symObjAddr: 0x5DA8, symBinAddr: 0x1E384, symSize: 0x4 }
  - { offsetInCU: 0x3B582, offset: 0xD3650, size: 0x8, addend: 0x0, symName: '__ZNSt3__110__function6__funcIZN5agora3rtc9extension26SenseTimeExtensionDelegateC1EvE3$_5NS_9allocatorIS6_EEFiRKN9rapidjson15GenericDocumentINS9_4UTF8IcEENS9_19MemoryPoolAllocatorINS9_12CrtAllocatorEEESE_EEEE18destroy_deallocateEv', symObjAddr: 0x5DAC, symBinAddr: 0x1E388, symSize: 0x4 }
  - { offsetInCU: 0x3B5B8, offset: 0xD3686, size: 0x8, addend: 0x0, symName: '__ZNSt3__110__function6__funcIZN5agora3rtc9extension26SenseTimeExtensionDelegateC1EvE3$_5NS_9allocatorIS6_EEFiRKN9rapidjson15GenericDocumentINS9_4UTF8IcEENS9_19MemoryPoolAllocatorINS9_12CrtAllocatorEEESE_EEEE18destroy_deallocateEv', symObjAddr: 0x5DAC, symBinAddr: 0x1E388, symSize: 0x4 }
  - { offsetInCU: 0x3B5DC, offset: 0xD36AA, size: 0x8, addend: 0x0, symName: '__ZNSt3__110__function6__funcIZN5agora3rtc9extension26SenseTimeExtensionDelegateC1EvE3$_5NS_9allocatorIS6_EEFiRKN9rapidjson15GenericDocumentINS9_4UTF8IcEENS9_19MemoryPoolAllocatorINS9_12CrtAllocatorEEESE_EEEE18destroy_deallocateEv', symObjAddr: 0x5DAC, symBinAddr: 0x1E388, symSize: 0x4 }
  - { offsetInCU: 0x3B608, offset: 0xD36D6, size: 0x8, addend: 0x0, symName: '__ZNSt3__110__function6__funcIZN5agora3rtc9extension26SenseTimeExtensionDelegateC1EvE3$_5NS_9allocatorIS6_EEFiRKN9rapidjson15GenericDocumentINS9_4UTF8IcEENS9_19MemoryPoolAllocatorINS9_12CrtAllocatorEEESE_EEEE18destroy_deallocateEv', symObjAddr: 0x5DAC, symBinAddr: 0x1E388, symSize: 0x4 }
  - { offsetInCU: 0x3B62F, offset: 0xD36FD, size: 0x8, addend: 0x0, symName: '__ZNSt3__110__function6__funcIZN5agora3rtc9extension26SenseTimeExtensionDelegateC1EvE3$_5NS_9allocatorIS6_EEFiRKN9rapidjson15GenericDocumentINS9_4UTF8IcEENS9_19MemoryPoolAllocatorINS9_12CrtAllocatorEEESE_EEEE18destroy_deallocateEv', symObjAddr: 0x5DAC, symBinAddr: 0x1E388, symSize: 0x4 }
  - { offsetInCU: 0x3B700, offset: 0xD37CE, size: 0x8, addend: 0x0, symName: '__ZNSt3__110__function6__funcIZN5agora3rtc9extension26SenseTimeExtensionDelegateC1EvE3$_5NS_9allocatorIS6_EEFiRKN9rapidjson15GenericDocumentINS9_4UTF8IcEENS9_19MemoryPoolAllocatorINS9_12CrtAllocatorEEESE_EEEEclESI_', symObjAddr: 0x5DB0, symBinAddr: 0x1E38C, symSize: 0x8C }
  - { offsetInCU: 0x3B8DF, offset: 0xD39AD, size: 0x8, addend: 0x0, symName: '__ZNKSt3__110__function6__funcIZN5agora3rtc9extension26SenseTimeExtensionDelegateC1EvE3$_5NS_9allocatorIS6_EEFiRKN9rapidjson15GenericDocumentINS9_4UTF8IcEENS9_19MemoryPoolAllocatorINS9_12CrtAllocatorEEESE_EEEE6targetERKSt9type_info', symObjAddr: 0x5E3C, symBinAddr: 0x1E418, symSize: 0x3C }
  - { offsetInCU: 0x3B8EA, offset: 0xD39B8, size: 0x8, addend: 0x0, symName: '__ZNSt3__110__function6__funcIZN5agora3rtc9extension26SenseTimeExtensionDelegateC1EvE3$_5NS_9allocatorIS6_EEFiRKN9rapidjson15GenericDocumentINS9_4UTF8IcEENS9_19MemoryPoolAllocatorINS9_12CrtAllocatorEEESE_EEEEclESI_.cold.1', symObjAddr: 0x8C5C, symBinAddr: 0x92B4CC, symSize: 0x28 }
  - { offsetInCU: 0x3B973, offset: 0xD3A41, size: 0x8, addend: 0x0, symName: '__ZNKSt3__110__function6__funcIZN5agora3rtc9extension26SenseTimeExtensionDelegateC1EvE3$_5NS_9allocatorIS6_EEFiRKN9rapidjson15GenericDocumentINS9_4UTF8IcEENS9_19MemoryPoolAllocatorINS9_12CrtAllocatorEEESE_EEEE6targetERKSt9type_info', symObjAddr: 0x5E3C, symBinAddr: 0x1E418, symSize: 0x3C }
  - { offsetInCU: 0x3B9C2, offset: 0xD3A90, size: 0x8, addend: 0x0, symName: '__ZNKSt3__110__function6__funcIZN5agora3rtc9extension26SenseTimeExtensionDelegateC1EvE3$_5NS_9allocatorIS6_EEFiRKN9rapidjson15GenericDocumentINS9_4UTF8IcEENS9_19MemoryPoolAllocatorINS9_12CrtAllocatorEEESE_EEEE11target_typeEv', symObjAddr: 0x5E78, symBinAddr: 0x1E454, symSize: 0xC }
  - { offsetInCU: 0x3B9E7, offset: 0xD3AB5, size: 0x8, addend: 0x0, symName: '__ZNSt3__110__function6__funcIZN5agora3rtc9extension26SenseTimeExtensionDelegateC1EvE3$_6NS_9allocatorIS6_EEFiRKN9rapidjson15GenericDocumentINS9_4UTF8IcEENS9_19MemoryPoolAllocatorINS9_12CrtAllocatorEEESE_EEEED1Ev', symObjAddr: 0x5E84, symBinAddr: 0x1E460, symSize: 0x4 }
  - { offsetInCU: 0x3BA13, offset: 0xD3AE1, size: 0x8, addend: 0x0, symName: '__ZNSt3__110__function6__funcIZN5agora3rtc9extension26SenseTimeExtensionDelegateC1EvE3$_6NS_9allocatorIS6_EEFiRKN9rapidjson15GenericDocumentINS9_4UTF8IcEENS9_19MemoryPoolAllocatorINS9_12CrtAllocatorEEESE_EEEED0Ev', symObjAddr: 0x5E88, symBinAddr: 0x1E464, symSize: 0x4 }
  - { offsetInCU: 0x3BC17, offset: 0xD3CE5, size: 0x8, addend: 0x0, symName: '__ZNKSt3__110__function6__funcIZN5agora3rtc9extension26SenseTimeExtensionDelegateC1EvE3$_6NS_9allocatorIS6_EEFiRKN9rapidjson15GenericDocumentINS9_4UTF8IcEENS9_19MemoryPoolAllocatorINS9_12CrtAllocatorEEESE_EEEE7__cloneEv', symObjAddr: 0x5E8C, symBinAddr: 0x1E468, symSize: 0x34 }
  - { offsetInCU: 0x3BF15, offset: 0xD3FE3, size: 0x8, addend: 0x0, symName: '__ZNKSt3__110__function6__funcIZN5agora3rtc9extension26SenseTimeExtensionDelegateC1EvE3$_6NS_9allocatorIS6_EEFiRKN9rapidjson15GenericDocumentINS9_4UTF8IcEENS9_19MemoryPoolAllocatorINS9_12CrtAllocatorEEESE_EEEE7__cloneEPNS0_6__baseISJ_EE', symObjAddr: 0x5EC0, symBinAddr: 0x1E49C, symSize: 0x14 }
  - { offsetInCU: 0x3BF4D, offset: 0xD401B, size: 0x8, addend: 0x0, symName: '__ZNKSt3__110__function6__funcIZN5agora3rtc9extension26SenseTimeExtensionDelegateC1EvE3$_6NS_9allocatorIS6_EEFiRKN9rapidjson15GenericDocumentINS9_4UTF8IcEENS9_19MemoryPoolAllocatorINS9_12CrtAllocatorEEESE_EEEE7__cloneEPNS0_6__baseISJ_EE', symObjAddr: 0x5EC0, symBinAddr: 0x1E49C, symSize: 0x14 }
  - { offsetInCU: 0x3BF7C, offset: 0xD404A, size: 0x8, addend: 0x0, symName: '__ZNKSt3__110__function6__funcIZN5agora3rtc9extension26SenseTimeExtensionDelegateC1EvE3$_6NS_9allocatorIS6_EEFiRKN9rapidjson15GenericDocumentINS9_4UTF8IcEENS9_19MemoryPoolAllocatorINS9_12CrtAllocatorEEESE_EEEE7__cloneEPNS0_6__baseISJ_EE', symObjAddr: 0x5EC0, symBinAddr: 0x1E49C, symSize: 0x14 }
  - { offsetInCU: 0x3BFAB, offset: 0xD4079, size: 0x8, addend: 0x0, symName: '__ZNKSt3__110__function6__funcIZN5agora3rtc9extension26SenseTimeExtensionDelegateC1EvE3$_6NS_9allocatorIS6_EEFiRKN9rapidjson15GenericDocumentINS9_4UTF8IcEENS9_19MemoryPoolAllocatorINS9_12CrtAllocatorEEESE_EEEE7__cloneEPNS0_6__baseISJ_EE', symObjAddr: 0x5EC0, symBinAddr: 0x1E49C, symSize: 0x14 }
  - { offsetInCU: 0x3BFC1, offset: 0xD408F, size: 0x8, addend: 0x0, symName: '__ZNKSt3__110__function6__funcIZN5agora3rtc9extension26SenseTimeExtensionDelegateC1EvE3$_6NS_9allocatorIS6_EEFiRKN9rapidjson15GenericDocumentINS9_4UTF8IcEENS9_19MemoryPoolAllocatorINS9_12CrtAllocatorEEESE_EEEE7__cloneEPNS0_6__baseISJ_EE', symObjAddr: 0x5EC0, symBinAddr: 0x1E49C, symSize: 0x14 }
  - { offsetInCU: 0x3BFD5, offset: 0xD40A3, size: 0x8, addend: 0x0, symName: '__ZNKSt3__110__function6__funcIZN5agora3rtc9extension26SenseTimeExtensionDelegateC1EvE3$_6NS_9allocatorIS6_EEFiRKN9rapidjson15GenericDocumentINS9_4UTF8IcEENS9_19MemoryPoolAllocatorINS9_12CrtAllocatorEEESE_EEEE7__cloneEPNS0_6__baseISJ_EE', symObjAddr: 0x5EC0, symBinAddr: 0x1E49C, symSize: 0x14 }
  - { offsetInCU: 0x3BFE9, offset: 0xD40B7, size: 0x8, addend: 0x0, symName: '__ZNKSt3__110__function6__funcIZN5agora3rtc9extension26SenseTimeExtensionDelegateC1EvE3$_6NS_9allocatorIS6_EEFiRKN9rapidjson15GenericDocumentINS9_4UTF8IcEENS9_19MemoryPoolAllocatorINS9_12CrtAllocatorEEESE_EEEE7__cloneEPNS0_6__baseISJ_EE', symObjAddr: 0x5EC0, symBinAddr: 0x1E49C, symSize: 0x14 }
  - { offsetInCU: 0x3BFFE, offset: 0xD40CC, size: 0x8, addend: 0x0, symName: '__ZNKSt3__110__function6__funcIZN5agora3rtc9extension26SenseTimeExtensionDelegateC1EvE3$_6NS_9allocatorIS6_EEFiRKN9rapidjson15GenericDocumentINS9_4UTF8IcEENS9_19MemoryPoolAllocatorINS9_12CrtAllocatorEEESE_EEEE7__cloneEPNS0_6__baseISJ_EE', symObjAddr: 0x5EC0, symBinAddr: 0x1E49C, symSize: 0x14 }
  - { offsetInCU: 0x3C015, offset: 0xD40E3, size: 0x8, addend: 0x0, symName: '__ZNSt3__110__function6__funcIZN5agora3rtc9extension26SenseTimeExtensionDelegateC1EvE3$_6NS_9allocatorIS6_EEFiRKN9rapidjson15GenericDocumentINS9_4UTF8IcEENS9_19MemoryPoolAllocatorINS9_12CrtAllocatorEEESE_EEEE7destroyEv', symObjAddr: 0x5ED4, symBinAddr: 0x1E4B0, symSize: 0x4 }
  - { offsetInCU: 0x3C066, offset: 0xD4134, size: 0x8, addend: 0x0, symName: '__ZNSt3__110__function6__funcIZN5agora3rtc9extension26SenseTimeExtensionDelegateC1EvE3$_6NS_9allocatorIS6_EEFiRKN9rapidjson15GenericDocumentINS9_4UTF8IcEENS9_19MemoryPoolAllocatorINS9_12CrtAllocatorEEESE_EEEE18destroy_deallocateEv', symObjAddr: 0x5ED8, symBinAddr: 0x1E4B4, symSize: 0x4 }
  - { offsetInCU: 0x3C09C, offset: 0xD416A, size: 0x8, addend: 0x0, symName: '__ZNSt3__110__function6__funcIZN5agora3rtc9extension26SenseTimeExtensionDelegateC1EvE3$_6NS_9allocatorIS6_EEFiRKN9rapidjson15GenericDocumentINS9_4UTF8IcEENS9_19MemoryPoolAllocatorINS9_12CrtAllocatorEEESE_EEEE18destroy_deallocateEv', symObjAddr: 0x5ED8, symBinAddr: 0x1E4B4, symSize: 0x4 }
  - { offsetInCU: 0x3C0C0, offset: 0xD418E, size: 0x8, addend: 0x0, symName: '__ZNSt3__110__function6__funcIZN5agora3rtc9extension26SenseTimeExtensionDelegateC1EvE3$_6NS_9allocatorIS6_EEFiRKN9rapidjson15GenericDocumentINS9_4UTF8IcEENS9_19MemoryPoolAllocatorINS9_12CrtAllocatorEEESE_EEEE18destroy_deallocateEv', symObjAddr: 0x5ED8, symBinAddr: 0x1E4B4, symSize: 0x4 }
  - { offsetInCU: 0x3C0EC, offset: 0xD41BA, size: 0x8, addend: 0x0, symName: '__ZNSt3__110__function6__funcIZN5agora3rtc9extension26SenseTimeExtensionDelegateC1EvE3$_6NS_9allocatorIS6_EEFiRKN9rapidjson15GenericDocumentINS9_4UTF8IcEENS9_19MemoryPoolAllocatorINS9_12CrtAllocatorEEESE_EEEE18destroy_deallocateEv', symObjAddr: 0x5ED8, symBinAddr: 0x1E4B4, symSize: 0x4 }
  - { offsetInCU: 0x3C113, offset: 0xD41E1, size: 0x8, addend: 0x0, symName: '__ZNSt3__110__function6__funcIZN5agora3rtc9extension26SenseTimeExtensionDelegateC1EvE3$_6NS_9allocatorIS6_EEFiRKN9rapidjson15GenericDocumentINS9_4UTF8IcEENS9_19MemoryPoolAllocatorINS9_12CrtAllocatorEEESE_EEEE18destroy_deallocateEv', symObjAddr: 0x5ED8, symBinAddr: 0x1E4B4, symSize: 0x4 }
  - { offsetInCU: 0x3C1BF, offset: 0xD428D, size: 0x8, addend: 0x0, symName: '__ZNSt3__110__function6__funcIZN5agora3rtc9extension26SenseTimeExtensionDelegateC1EvE3$_6NS_9allocatorIS6_EEFiRKN9rapidjson15GenericDocumentINS9_4UTF8IcEENS9_19MemoryPoolAllocatorINS9_12CrtAllocatorEEESE_EEEEclESI_', symObjAddr: 0x5EDC, symBinAddr: 0x1E4B8, symSize: 0xE0 }
  - { offsetInCU: 0x3C42B, offset: 0xD44F9, size: 0x8, addend: 0x0, symName: '__ZNKSt3__110__function6__funcIZN5agora3rtc9extension26SenseTimeExtensionDelegateC1EvE3$_6NS_9allocatorIS6_EEFiRKN9rapidjson15GenericDocumentINS9_4UTF8IcEENS9_19MemoryPoolAllocatorINS9_12CrtAllocatorEEESE_EEEE6targetERKSt9type_info', symObjAddr: 0x5FBC, symBinAddr: 0x1E598, symSize: 0x3C }
  - { offsetInCU: 0x3C436, offset: 0xD4504, size: 0x8, addend: 0x0, symName: '__ZNSt3__110__function6__funcIZN5agora3rtc9extension26SenseTimeExtensionDelegateC1EvE3$_6NS_9allocatorIS6_EEFiRKN9rapidjson15GenericDocumentINS9_4UTF8IcEENS9_19MemoryPoolAllocatorINS9_12CrtAllocatorEEESE_EEEEclESI_.cold.1', symObjAddr: 0x8C84, symBinAddr: 0x92B4F4, symSize: 0x24 }
  - { offsetInCU: 0x3C4BF, offset: 0xD458D, size: 0x8, addend: 0x0, symName: '__ZNKSt3__110__function6__funcIZN5agora3rtc9extension26SenseTimeExtensionDelegateC1EvE3$_6NS_9allocatorIS6_EEFiRKN9rapidjson15GenericDocumentINS9_4UTF8IcEENS9_19MemoryPoolAllocatorINS9_12CrtAllocatorEEESE_EEEE6targetERKSt9type_info', symObjAddr: 0x5FBC, symBinAddr: 0x1E598, symSize: 0x3C }
  - { offsetInCU: 0x3C50E, offset: 0xD45DC, size: 0x8, addend: 0x0, symName: '__ZNKSt3__110__function6__funcIZN5agora3rtc9extension26SenseTimeExtensionDelegateC1EvE3$_6NS_9allocatorIS6_EEFiRKN9rapidjson15GenericDocumentINS9_4UTF8IcEENS9_19MemoryPoolAllocatorINS9_12CrtAllocatorEEESE_EEEE11target_typeEv', symObjAddr: 0x5FF8, symBinAddr: 0x1E5D4, symSize: 0xC }
  - { offsetInCU: 0x3C533, offset: 0xD4601, size: 0x8, addend: 0x0, symName: '__ZNSt3__110__function6__funcIZN5agora3rtc9extension26SenseTimeExtensionDelegateC1EvE3$_7NS_9allocatorIS6_EEFiRKN9rapidjson15GenericDocumentINS9_4UTF8IcEENS9_19MemoryPoolAllocatorINS9_12CrtAllocatorEEESE_EEEED1Ev', symObjAddr: 0x6004, symBinAddr: 0x1E5E0, symSize: 0x4 }
  - { offsetInCU: 0x3C55F, offset: 0xD462D, size: 0x8, addend: 0x0, symName: '__ZNSt3__110__function6__funcIZN5agora3rtc9extension26SenseTimeExtensionDelegateC1EvE3$_7NS_9allocatorIS6_EEFiRKN9rapidjson15GenericDocumentINS9_4UTF8IcEENS9_19MemoryPoolAllocatorINS9_12CrtAllocatorEEESE_EEEED0Ev', symObjAddr: 0x6008, symBinAddr: 0x1E5E4, symSize: 0x4 }
  - { offsetInCU: 0x3C763, offset: 0xD4831, size: 0x8, addend: 0x0, symName: '__ZNKSt3__110__function6__funcIZN5agora3rtc9extension26SenseTimeExtensionDelegateC1EvE3$_7NS_9allocatorIS6_EEFiRKN9rapidjson15GenericDocumentINS9_4UTF8IcEENS9_19MemoryPoolAllocatorINS9_12CrtAllocatorEEESE_EEEE7__cloneEv', symObjAddr: 0x600C, symBinAddr: 0x1E5E8, symSize: 0x34 }
  - { offsetInCU: 0x3CA61, offset: 0xD4B2F, size: 0x8, addend: 0x0, symName: '__ZNKSt3__110__function6__funcIZN5agora3rtc9extension26SenseTimeExtensionDelegateC1EvE3$_7NS_9allocatorIS6_EEFiRKN9rapidjson15GenericDocumentINS9_4UTF8IcEENS9_19MemoryPoolAllocatorINS9_12CrtAllocatorEEESE_EEEE7__cloneEPNS0_6__baseISJ_EE', symObjAddr: 0x6040, symBinAddr: 0x1E61C, symSize: 0x14 }
  - { offsetInCU: 0x3CA99, offset: 0xD4B67, size: 0x8, addend: 0x0, symName: '__ZNKSt3__110__function6__funcIZN5agora3rtc9extension26SenseTimeExtensionDelegateC1EvE3$_7NS_9allocatorIS6_EEFiRKN9rapidjson15GenericDocumentINS9_4UTF8IcEENS9_19MemoryPoolAllocatorINS9_12CrtAllocatorEEESE_EEEE7__cloneEPNS0_6__baseISJ_EE', symObjAddr: 0x6040, symBinAddr: 0x1E61C, symSize: 0x14 }
  - { offsetInCU: 0x3CAC8, offset: 0xD4B96, size: 0x8, addend: 0x0, symName: '__ZNKSt3__110__function6__funcIZN5agora3rtc9extension26SenseTimeExtensionDelegateC1EvE3$_7NS_9allocatorIS6_EEFiRKN9rapidjson15GenericDocumentINS9_4UTF8IcEENS9_19MemoryPoolAllocatorINS9_12CrtAllocatorEEESE_EEEE7__cloneEPNS0_6__baseISJ_EE', symObjAddr: 0x6040, symBinAddr: 0x1E61C, symSize: 0x14 }
  - { offsetInCU: 0x3CAF7, offset: 0xD4BC5, size: 0x8, addend: 0x0, symName: '__ZNKSt3__110__function6__funcIZN5agora3rtc9extension26SenseTimeExtensionDelegateC1EvE3$_7NS_9allocatorIS6_EEFiRKN9rapidjson15GenericDocumentINS9_4UTF8IcEENS9_19MemoryPoolAllocatorINS9_12CrtAllocatorEEESE_EEEE7__cloneEPNS0_6__baseISJ_EE', symObjAddr: 0x6040, symBinAddr: 0x1E61C, symSize: 0x14 }
  - { offsetInCU: 0x3CB0D, offset: 0xD4BDB, size: 0x8, addend: 0x0, symName: '__ZNKSt3__110__function6__funcIZN5agora3rtc9extension26SenseTimeExtensionDelegateC1EvE3$_7NS_9allocatorIS6_EEFiRKN9rapidjson15GenericDocumentINS9_4UTF8IcEENS9_19MemoryPoolAllocatorINS9_12CrtAllocatorEEESE_EEEE7__cloneEPNS0_6__baseISJ_EE', symObjAddr: 0x6040, symBinAddr: 0x1E61C, symSize: 0x14 }
  - { offsetInCU: 0x3CB21, offset: 0xD4BEF, size: 0x8, addend: 0x0, symName: '__ZNKSt3__110__function6__funcIZN5agora3rtc9extension26SenseTimeExtensionDelegateC1EvE3$_7NS_9allocatorIS6_EEFiRKN9rapidjson15GenericDocumentINS9_4UTF8IcEENS9_19MemoryPoolAllocatorINS9_12CrtAllocatorEEESE_EEEE7__cloneEPNS0_6__baseISJ_EE', symObjAddr: 0x6040, symBinAddr: 0x1E61C, symSize: 0x14 }
  - { offsetInCU: 0x3CB35, offset: 0xD4C03, size: 0x8, addend: 0x0, symName: '__ZNKSt3__110__function6__funcIZN5agora3rtc9extension26SenseTimeExtensionDelegateC1EvE3$_7NS_9allocatorIS6_EEFiRKN9rapidjson15GenericDocumentINS9_4UTF8IcEENS9_19MemoryPoolAllocatorINS9_12CrtAllocatorEEESE_EEEE7__cloneEPNS0_6__baseISJ_EE', symObjAddr: 0x6040, symBinAddr: 0x1E61C, symSize: 0x14 }
  - { offsetInCU: 0x3CB4A, offset: 0xD4C18, size: 0x8, addend: 0x0, symName: '__ZNKSt3__110__function6__funcIZN5agora3rtc9extension26SenseTimeExtensionDelegateC1EvE3$_7NS_9allocatorIS6_EEFiRKN9rapidjson15GenericDocumentINS9_4UTF8IcEENS9_19MemoryPoolAllocatorINS9_12CrtAllocatorEEESE_EEEE7__cloneEPNS0_6__baseISJ_EE', symObjAddr: 0x6040, symBinAddr: 0x1E61C, symSize: 0x14 }
  - { offsetInCU: 0x3CB61, offset: 0xD4C2F, size: 0x8, addend: 0x0, symName: '__ZNSt3__110__function6__funcIZN5agora3rtc9extension26SenseTimeExtensionDelegateC1EvE3$_7NS_9allocatorIS6_EEFiRKN9rapidjson15GenericDocumentINS9_4UTF8IcEENS9_19MemoryPoolAllocatorINS9_12CrtAllocatorEEESE_EEEE7destroyEv', symObjAddr: 0x6054, symBinAddr: 0x1E630, symSize: 0x4 }
  - { offsetInCU: 0x3CBB2, offset: 0xD4C80, size: 0x8, addend: 0x0, symName: '__ZNSt3__110__function6__funcIZN5agora3rtc9extension26SenseTimeExtensionDelegateC1EvE3$_7NS_9allocatorIS6_EEFiRKN9rapidjson15GenericDocumentINS9_4UTF8IcEENS9_19MemoryPoolAllocatorINS9_12CrtAllocatorEEESE_EEEE18destroy_deallocateEv', symObjAddr: 0x6058, symBinAddr: 0x1E634, symSize: 0x4 }
  - { offsetInCU: 0x3CBE8, offset: 0xD4CB6, size: 0x8, addend: 0x0, symName: '__ZNSt3__110__function6__funcIZN5agora3rtc9extension26SenseTimeExtensionDelegateC1EvE3$_7NS_9allocatorIS6_EEFiRKN9rapidjson15GenericDocumentINS9_4UTF8IcEENS9_19MemoryPoolAllocatorINS9_12CrtAllocatorEEESE_EEEE18destroy_deallocateEv', symObjAddr: 0x6058, symBinAddr: 0x1E634, symSize: 0x4 }
  - { offsetInCU: 0x3CC0C, offset: 0xD4CDA, size: 0x8, addend: 0x0, symName: '__ZNSt3__110__function6__funcIZN5agora3rtc9extension26SenseTimeExtensionDelegateC1EvE3$_7NS_9allocatorIS6_EEFiRKN9rapidjson15GenericDocumentINS9_4UTF8IcEENS9_19MemoryPoolAllocatorINS9_12CrtAllocatorEEESE_EEEE18destroy_deallocateEv', symObjAddr: 0x6058, symBinAddr: 0x1E634, symSize: 0x4 }
  - { offsetInCU: 0x3CC38, offset: 0xD4D06, size: 0x8, addend: 0x0, symName: '__ZNSt3__110__function6__funcIZN5agora3rtc9extension26SenseTimeExtensionDelegateC1EvE3$_7NS_9allocatorIS6_EEFiRKN9rapidjson15GenericDocumentINS9_4UTF8IcEENS9_19MemoryPoolAllocatorINS9_12CrtAllocatorEEESE_EEEE18destroy_deallocateEv', symObjAddr: 0x6058, symBinAddr: 0x1E634, symSize: 0x4 }
  - { offsetInCU: 0x3CC5F, offset: 0xD4D2D, size: 0x8, addend: 0x0, symName: '__ZNSt3__110__function6__funcIZN5agora3rtc9extension26SenseTimeExtensionDelegateC1EvE3$_7NS_9allocatorIS6_EEFiRKN9rapidjson15GenericDocumentINS9_4UTF8IcEENS9_19MemoryPoolAllocatorINS9_12CrtAllocatorEEESE_EEEE18destroy_deallocateEv', symObjAddr: 0x6058, symBinAddr: 0x1E634, symSize: 0x4 }
  - { offsetInCU: 0x3CD0B, offset: 0xD4DD9, size: 0x8, addend: 0x0, symName: '__ZNSt3__110__function6__funcIZN5agora3rtc9extension26SenseTimeExtensionDelegateC1EvE3$_7NS_9allocatorIS6_EEFiRKN9rapidjson15GenericDocumentINS9_4UTF8IcEENS9_19MemoryPoolAllocatorINS9_12CrtAllocatorEEESE_EEEEclESI_', symObjAddr: 0x605C, symBinAddr: 0x1E638, symSize: 0xE0 }
  - { offsetInCU: 0x3CF77, offset: 0xD5045, size: 0x8, addend: 0x0, symName: '__ZNKSt3__110__function6__funcIZN5agora3rtc9extension26SenseTimeExtensionDelegateC1EvE3$_7NS_9allocatorIS6_EEFiRKN9rapidjson15GenericDocumentINS9_4UTF8IcEENS9_19MemoryPoolAllocatorINS9_12CrtAllocatorEEESE_EEEE6targetERKSt9type_info', symObjAddr: 0x613C, symBinAddr: 0x1E718, symSize: 0x3C }
  - { offsetInCU: 0x3CF82, offset: 0xD5050, size: 0x8, addend: 0x0, symName: '__ZNSt3__110__function6__funcIZN5agora3rtc9extension26SenseTimeExtensionDelegateC1EvE3$_7NS_9allocatorIS6_EEFiRKN9rapidjson15GenericDocumentINS9_4UTF8IcEENS9_19MemoryPoolAllocatorINS9_12CrtAllocatorEEESE_EEEEclESI_.cold.1', symObjAddr: 0x8CA8, symBinAddr: 0x92B518, symSize: 0x24 }
  - { offsetInCU: 0x3D00B, offset: 0xD50D9, size: 0x8, addend: 0x0, symName: '__ZNKSt3__110__function6__funcIZN5agora3rtc9extension26SenseTimeExtensionDelegateC1EvE3$_7NS_9allocatorIS6_EEFiRKN9rapidjson15GenericDocumentINS9_4UTF8IcEENS9_19MemoryPoolAllocatorINS9_12CrtAllocatorEEESE_EEEE6targetERKSt9type_info', symObjAddr: 0x613C, symBinAddr: 0x1E718, symSize: 0x3C }
  - { offsetInCU: 0x3D05A, offset: 0xD5128, size: 0x8, addend: 0x0, symName: '__ZNKSt3__110__function6__funcIZN5agora3rtc9extension26SenseTimeExtensionDelegateC1EvE3$_7NS_9allocatorIS6_EEFiRKN9rapidjson15GenericDocumentINS9_4UTF8IcEENS9_19MemoryPoolAllocatorINS9_12CrtAllocatorEEESE_EEEE11target_typeEv', symObjAddr: 0x6178, symBinAddr: 0x1E754, symSize: 0xC }
  - { offsetInCU: 0x3D07F, offset: 0xD514D, size: 0x8, addend: 0x0, symName: '__ZNSt3__110__function6__funcIZN5agora3rtc9extension26SenseTimeExtensionDelegateC1EvE3$_8NS_9allocatorIS6_EEFiRKN9rapidjson15GenericDocumentINS9_4UTF8IcEENS9_19MemoryPoolAllocatorINS9_12CrtAllocatorEEESE_EEEED1Ev', symObjAddr: 0x6184, symBinAddr: 0x1E760, symSize: 0x4 }
  - { offsetInCU: 0x3D0AB, offset: 0xD5179, size: 0x8, addend: 0x0, symName: '__ZNSt3__110__function6__funcIZN5agora3rtc9extension26SenseTimeExtensionDelegateC1EvE3$_8NS_9allocatorIS6_EEFiRKN9rapidjson15GenericDocumentINS9_4UTF8IcEENS9_19MemoryPoolAllocatorINS9_12CrtAllocatorEEESE_EEEED0Ev', symObjAddr: 0x6188, symBinAddr: 0x1E764, symSize: 0x4 }
  - { offsetInCU: 0x3D2AF, offset: 0xD537D, size: 0x8, addend: 0x0, symName: '__ZNKSt3__110__function6__funcIZN5agora3rtc9extension26SenseTimeExtensionDelegateC1EvE3$_8NS_9allocatorIS6_EEFiRKN9rapidjson15GenericDocumentINS9_4UTF8IcEENS9_19MemoryPoolAllocatorINS9_12CrtAllocatorEEESE_EEEE7__cloneEv', symObjAddr: 0x618C, symBinAddr: 0x1E768, symSize: 0x34 }
  - { offsetInCU: 0x3D5AD, offset: 0xD567B, size: 0x8, addend: 0x0, symName: '__ZNKSt3__110__function6__funcIZN5agora3rtc9extension26SenseTimeExtensionDelegateC1EvE3$_8NS_9allocatorIS6_EEFiRKN9rapidjson15GenericDocumentINS9_4UTF8IcEENS9_19MemoryPoolAllocatorINS9_12CrtAllocatorEEESE_EEEE7__cloneEPNS0_6__baseISJ_EE', symObjAddr: 0x61C0, symBinAddr: 0x1E79C, symSize: 0x14 }
  - { offsetInCU: 0x3D5E5, offset: 0xD56B3, size: 0x8, addend: 0x0, symName: '__ZNKSt3__110__function6__funcIZN5agora3rtc9extension26SenseTimeExtensionDelegateC1EvE3$_8NS_9allocatorIS6_EEFiRKN9rapidjson15GenericDocumentINS9_4UTF8IcEENS9_19MemoryPoolAllocatorINS9_12CrtAllocatorEEESE_EEEE7__cloneEPNS0_6__baseISJ_EE', symObjAddr: 0x61C0, symBinAddr: 0x1E79C, symSize: 0x14 }
  - { offsetInCU: 0x3D614, offset: 0xD56E2, size: 0x8, addend: 0x0, symName: '__ZNKSt3__110__function6__funcIZN5agora3rtc9extension26SenseTimeExtensionDelegateC1EvE3$_8NS_9allocatorIS6_EEFiRKN9rapidjson15GenericDocumentINS9_4UTF8IcEENS9_19MemoryPoolAllocatorINS9_12CrtAllocatorEEESE_EEEE7__cloneEPNS0_6__baseISJ_EE', symObjAddr: 0x61C0, symBinAddr: 0x1E79C, symSize: 0x14 }
  - { offsetInCU: 0x3D643, offset: 0xD5711, size: 0x8, addend: 0x0, symName: '__ZNKSt3__110__function6__funcIZN5agora3rtc9extension26SenseTimeExtensionDelegateC1EvE3$_8NS_9allocatorIS6_EEFiRKN9rapidjson15GenericDocumentINS9_4UTF8IcEENS9_19MemoryPoolAllocatorINS9_12CrtAllocatorEEESE_EEEE7__cloneEPNS0_6__baseISJ_EE', symObjAddr: 0x61C0, symBinAddr: 0x1E79C, symSize: 0x14 }
  - { offsetInCU: 0x3D659, offset: 0xD5727, size: 0x8, addend: 0x0, symName: '__ZNKSt3__110__function6__funcIZN5agora3rtc9extension26SenseTimeExtensionDelegateC1EvE3$_8NS_9allocatorIS6_EEFiRKN9rapidjson15GenericDocumentINS9_4UTF8IcEENS9_19MemoryPoolAllocatorINS9_12CrtAllocatorEEESE_EEEE7__cloneEPNS0_6__baseISJ_EE', symObjAddr: 0x61C0, symBinAddr: 0x1E79C, symSize: 0x14 }
  - { offsetInCU: 0x3D66D, offset: 0xD573B, size: 0x8, addend: 0x0, symName: '__ZNKSt3__110__function6__funcIZN5agora3rtc9extension26SenseTimeExtensionDelegateC1EvE3$_8NS_9allocatorIS6_EEFiRKN9rapidjson15GenericDocumentINS9_4UTF8IcEENS9_19MemoryPoolAllocatorINS9_12CrtAllocatorEEESE_EEEE7__cloneEPNS0_6__baseISJ_EE', symObjAddr: 0x61C0, symBinAddr: 0x1E79C, symSize: 0x14 }
  - { offsetInCU: 0x3D681, offset: 0xD574F, size: 0x8, addend: 0x0, symName: '__ZNKSt3__110__function6__funcIZN5agora3rtc9extension26SenseTimeExtensionDelegateC1EvE3$_8NS_9allocatorIS6_EEFiRKN9rapidjson15GenericDocumentINS9_4UTF8IcEENS9_19MemoryPoolAllocatorINS9_12CrtAllocatorEEESE_EEEE7__cloneEPNS0_6__baseISJ_EE', symObjAddr: 0x61C0, symBinAddr: 0x1E79C, symSize: 0x14 }
  - { offsetInCU: 0x3D696, offset: 0xD5764, size: 0x8, addend: 0x0, symName: '__ZNKSt3__110__function6__funcIZN5agora3rtc9extension26SenseTimeExtensionDelegateC1EvE3$_8NS_9allocatorIS6_EEFiRKN9rapidjson15GenericDocumentINS9_4UTF8IcEENS9_19MemoryPoolAllocatorINS9_12CrtAllocatorEEESE_EEEE7__cloneEPNS0_6__baseISJ_EE', symObjAddr: 0x61C0, symBinAddr: 0x1E79C, symSize: 0x14 }
  - { offsetInCU: 0x3D6AD, offset: 0xD577B, size: 0x8, addend: 0x0, symName: '__ZNSt3__110__function6__funcIZN5agora3rtc9extension26SenseTimeExtensionDelegateC1EvE3$_8NS_9allocatorIS6_EEFiRKN9rapidjson15GenericDocumentINS9_4UTF8IcEENS9_19MemoryPoolAllocatorINS9_12CrtAllocatorEEESE_EEEE7destroyEv', symObjAddr: 0x61D4, symBinAddr: 0x1E7B0, symSize: 0x4 }
  - { offsetInCU: 0x3D6FE, offset: 0xD57CC, size: 0x8, addend: 0x0, symName: '__ZNSt3__110__function6__funcIZN5agora3rtc9extension26SenseTimeExtensionDelegateC1EvE3$_8NS_9allocatorIS6_EEFiRKN9rapidjson15GenericDocumentINS9_4UTF8IcEENS9_19MemoryPoolAllocatorINS9_12CrtAllocatorEEESE_EEEE18destroy_deallocateEv', symObjAddr: 0x61D8, symBinAddr: 0x1E7B4, symSize: 0x4 }
  - { offsetInCU: 0x3D734, offset: 0xD5802, size: 0x8, addend: 0x0, symName: '__ZNSt3__110__function6__funcIZN5agora3rtc9extension26SenseTimeExtensionDelegateC1EvE3$_8NS_9allocatorIS6_EEFiRKN9rapidjson15GenericDocumentINS9_4UTF8IcEENS9_19MemoryPoolAllocatorINS9_12CrtAllocatorEEESE_EEEE18destroy_deallocateEv', symObjAddr: 0x61D8, symBinAddr: 0x1E7B4, symSize: 0x4 }
  - { offsetInCU: 0x3D758, offset: 0xD5826, size: 0x8, addend: 0x0, symName: '__ZNSt3__110__function6__funcIZN5agora3rtc9extension26SenseTimeExtensionDelegateC1EvE3$_8NS_9allocatorIS6_EEFiRKN9rapidjson15GenericDocumentINS9_4UTF8IcEENS9_19MemoryPoolAllocatorINS9_12CrtAllocatorEEESE_EEEE18destroy_deallocateEv', symObjAddr: 0x61D8, symBinAddr: 0x1E7B4, symSize: 0x4 }
  - { offsetInCU: 0x3D784, offset: 0xD5852, size: 0x8, addend: 0x0, symName: '__ZNSt3__110__function6__funcIZN5agora3rtc9extension26SenseTimeExtensionDelegateC1EvE3$_8NS_9allocatorIS6_EEFiRKN9rapidjson15GenericDocumentINS9_4UTF8IcEENS9_19MemoryPoolAllocatorINS9_12CrtAllocatorEEESE_EEEE18destroy_deallocateEv', symObjAddr: 0x61D8, symBinAddr: 0x1E7B4, symSize: 0x4 }
  - { offsetInCU: 0x3D7AB, offset: 0xD5879, size: 0x8, addend: 0x0, symName: '__ZNSt3__110__function6__funcIZN5agora3rtc9extension26SenseTimeExtensionDelegateC1EvE3$_8NS_9allocatorIS6_EEFiRKN9rapidjson15GenericDocumentINS9_4UTF8IcEENS9_19MemoryPoolAllocatorINS9_12CrtAllocatorEEESE_EEEE18destroy_deallocateEv', symObjAddr: 0x61D8, symBinAddr: 0x1E7B4, symSize: 0x4 }
  - { offsetInCU: 0x3D857, offset: 0xD5925, size: 0x8, addend: 0x0, symName: '__ZNSt3__110__function6__funcIZN5agora3rtc9extension26SenseTimeExtensionDelegateC1EvE3$_8NS_9allocatorIS6_EEFiRKN9rapidjson15GenericDocumentINS9_4UTF8IcEENS9_19MemoryPoolAllocatorINS9_12CrtAllocatorEEESE_EEEEclESI_', symObjAddr: 0x61DC, symBinAddr: 0x1E7B8, symSize: 0xE8 }
  - { offsetInCU: 0x3DADB, offset: 0xD5BA9, size: 0x8, addend: 0x0, symName: '__ZNKSt3__110__function6__funcIZN5agora3rtc9extension26SenseTimeExtensionDelegateC1EvE3$_8NS_9allocatorIS6_EEFiRKN9rapidjson15GenericDocumentINS9_4UTF8IcEENS9_19MemoryPoolAllocatorINS9_12CrtAllocatorEEESE_EEEE6targetERKSt9type_info', symObjAddr: 0x62C4, symBinAddr: 0x1E8A0, symSize: 0x3C }
  - { offsetInCU: 0x3DAE6, offset: 0xD5BB4, size: 0x8, addend: 0x0, symName: '__ZNSt3__110__function6__funcIZN5agora3rtc9extension26SenseTimeExtensionDelegateC1EvE3$_8NS_9allocatorIS6_EEFiRKN9rapidjson15GenericDocumentINS9_4UTF8IcEENS9_19MemoryPoolAllocatorINS9_12CrtAllocatorEEESE_EEEEclESI_.cold.1', symObjAddr: 0x8CCC, symBinAddr: 0x92B53C, symSize: 0x24 }
  - { offsetInCU: 0x3DB6F, offset: 0xD5C3D, size: 0x8, addend: 0x0, symName: '__ZNSt3__110__function6__funcIZN5agora3rtc9extension26SenseTimeExtensionDelegateC1EvE3$_8NS_9allocatorIS6_EEFiRKN9rapidjson15GenericDocumentINS9_4UTF8IcEENS9_19MemoryPoolAllocatorINS9_12CrtAllocatorEEESE_EEEEclESI_.cold.2', symObjAddr: 0x8CF0, symBinAddr: 0x92B560, symSize: 0x24 }
  - { offsetInCU: 0x3DBF8, offset: 0xD5CC6, size: 0x8, addend: 0x0, symName: '__ZNKSt3__110__function6__funcIZN5agora3rtc9extension26SenseTimeExtensionDelegateC1EvE3$_8NS_9allocatorIS6_EEFiRKN9rapidjson15GenericDocumentINS9_4UTF8IcEENS9_19MemoryPoolAllocatorINS9_12CrtAllocatorEEESE_EEEE6targetERKSt9type_info', symObjAddr: 0x62C4, symBinAddr: 0x1E8A0, symSize: 0x3C }
  - { offsetInCU: 0x3DC47, offset: 0xD5D15, size: 0x8, addend: 0x0, symName: '__ZNKSt3__110__function6__funcIZN5agora3rtc9extension26SenseTimeExtensionDelegateC1EvE3$_8NS_9allocatorIS6_EEFiRKN9rapidjson15GenericDocumentINS9_4UTF8IcEENS9_19MemoryPoolAllocatorINS9_12CrtAllocatorEEESE_EEEE11target_typeEv', symObjAddr: 0x6300, symBinAddr: 0x1E8DC, symSize: 0xC }
  - { offsetInCU: 0x3DC6C, offset: 0xD5D3A, size: 0x8, addend: 0x0, symName: '__ZNSt3__110__function6__funcIZN5agora3rtc9extension26SenseTimeExtensionDelegateC1EvE3$_9NS_9allocatorIS6_EEFiRKN9rapidjson15GenericDocumentINS9_4UTF8IcEENS9_19MemoryPoolAllocatorINS9_12CrtAllocatorEEESE_EEEED1Ev', symObjAddr: 0x630C, symBinAddr: 0x1E8E8, symSize: 0x4 }
  - { offsetInCU: 0x3DC98, offset: 0xD5D66, size: 0x8, addend: 0x0, symName: '__ZNSt3__110__function6__funcIZN5agora3rtc9extension26SenseTimeExtensionDelegateC1EvE3$_9NS_9allocatorIS6_EEFiRKN9rapidjson15GenericDocumentINS9_4UTF8IcEENS9_19MemoryPoolAllocatorINS9_12CrtAllocatorEEESE_EEEED0Ev', symObjAddr: 0x6310, symBinAddr: 0x1E8EC, symSize: 0x4 }
  - { offsetInCU: 0x3DE9C, offset: 0xD5F6A, size: 0x8, addend: 0x0, symName: '__ZNKSt3__110__function6__funcIZN5agora3rtc9extension26SenseTimeExtensionDelegateC1EvE3$_9NS_9allocatorIS6_EEFiRKN9rapidjson15GenericDocumentINS9_4UTF8IcEENS9_19MemoryPoolAllocatorINS9_12CrtAllocatorEEESE_EEEE7__cloneEv', symObjAddr: 0x6314, symBinAddr: 0x1E8F0, symSize: 0x34 }
  - { offsetInCU: 0x3E19A, offset: 0xD6268, size: 0x8, addend: 0x0, symName: '__ZNKSt3__110__function6__funcIZN5agora3rtc9extension26SenseTimeExtensionDelegateC1EvE3$_9NS_9allocatorIS6_EEFiRKN9rapidjson15GenericDocumentINS9_4UTF8IcEENS9_19MemoryPoolAllocatorINS9_12CrtAllocatorEEESE_EEEE7__cloneEPNS0_6__baseISJ_EE', symObjAddr: 0x6348, symBinAddr: 0x1E924, symSize: 0x14 }
  - { offsetInCU: 0x3E1D2, offset: 0xD62A0, size: 0x8, addend: 0x0, symName: '__ZNKSt3__110__function6__funcIZN5agora3rtc9extension26SenseTimeExtensionDelegateC1EvE3$_9NS_9allocatorIS6_EEFiRKN9rapidjson15GenericDocumentINS9_4UTF8IcEENS9_19MemoryPoolAllocatorINS9_12CrtAllocatorEEESE_EEEE7__cloneEPNS0_6__baseISJ_EE', symObjAddr: 0x6348, symBinAddr: 0x1E924, symSize: 0x14 }
  - { offsetInCU: 0x3E201, offset: 0xD62CF, size: 0x8, addend: 0x0, symName: '__ZNKSt3__110__function6__funcIZN5agora3rtc9extension26SenseTimeExtensionDelegateC1EvE3$_9NS_9allocatorIS6_EEFiRKN9rapidjson15GenericDocumentINS9_4UTF8IcEENS9_19MemoryPoolAllocatorINS9_12CrtAllocatorEEESE_EEEE7__cloneEPNS0_6__baseISJ_EE', symObjAddr: 0x6348, symBinAddr: 0x1E924, symSize: 0x14 }
  - { offsetInCU: 0x3E230, offset: 0xD62FE, size: 0x8, addend: 0x0, symName: '__ZNKSt3__110__function6__funcIZN5agora3rtc9extension26SenseTimeExtensionDelegateC1EvE3$_9NS_9allocatorIS6_EEFiRKN9rapidjson15GenericDocumentINS9_4UTF8IcEENS9_19MemoryPoolAllocatorINS9_12CrtAllocatorEEESE_EEEE7__cloneEPNS0_6__baseISJ_EE', symObjAddr: 0x6348, symBinAddr: 0x1E924, symSize: 0x14 }
  - { offsetInCU: 0x3E246, offset: 0xD6314, size: 0x8, addend: 0x0, symName: '__ZNKSt3__110__function6__funcIZN5agora3rtc9extension26SenseTimeExtensionDelegateC1EvE3$_9NS_9allocatorIS6_EEFiRKN9rapidjson15GenericDocumentINS9_4UTF8IcEENS9_19MemoryPoolAllocatorINS9_12CrtAllocatorEEESE_EEEE7__cloneEPNS0_6__baseISJ_EE', symObjAddr: 0x6348, symBinAddr: 0x1E924, symSize: 0x14 }
  - { offsetInCU: 0x3E25A, offset: 0xD6328, size: 0x8, addend: 0x0, symName: '__ZNKSt3__110__function6__funcIZN5agora3rtc9extension26SenseTimeExtensionDelegateC1EvE3$_9NS_9allocatorIS6_EEFiRKN9rapidjson15GenericDocumentINS9_4UTF8IcEENS9_19MemoryPoolAllocatorINS9_12CrtAllocatorEEESE_EEEE7__cloneEPNS0_6__baseISJ_EE', symObjAddr: 0x6348, symBinAddr: 0x1E924, symSize: 0x14 }
  - { offsetInCU: 0x3E26E, offset: 0xD633C, size: 0x8, addend: 0x0, symName: '__ZNKSt3__110__function6__funcIZN5agora3rtc9extension26SenseTimeExtensionDelegateC1EvE3$_9NS_9allocatorIS6_EEFiRKN9rapidjson15GenericDocumentINS9_4UTF8IcEENS9_19MemoryPoolAllocatorINS9_12CrtAllocatorEEESE_EEEE7__cloneEPNS0_6__baseISJ_EE', symObjAddr: 0x6348, symBinAddr: 0x1E924, symSize: 0x14 }
  - { offsetInCU: 0x3E283, offset: 0xD6351, size: 0x8, addend: 0x0, symName: '__ZNKSt3__110__function6__funcIZN5agora3rtc9extension26SenseTimeExtensionDelegateC1EvE3$_9NS_9allocatorIS6_EEFiRKN9rapidjson15GenericDocumentINS9_4UTF8IcEENS9_19MemoryPoolAllocatorINS9_12CrtAllocatorEEESE_EEEE7__cloneEPNS0_6__baseISJ_EE', symObjAddr: 0x6348, symBinAddr: 0x1E924, symSize: 0x14 }
  - { offsetInCU: 0x3E29A, offset: 0xD6368, size: 0x8, addend: 0x0, symName: '__ZNSt3__110__function6__funcIZN5agora3rtc9extension26SenseTimeExtensionDelegateC1EvE3$_9NS_9allocatorIS6_EEFiRKN9rapidjson15GenericDocumentINS9_4UTF8IcEENS9_19MemoryPoolAllocatorINS9_12CrtAllocatorEEESE_EEEE7destroyEv', symObjAddr: 0x635C, symBinAddr: 0x1E938, symSize: 0x4 }
  - { offsetInCU: 0x3E2EB, offset: 0xD63B9, size: 0x8, addend: 0x0, symName: '__ZNSt3__110__function6__funcIZN5agora3rtc9extension26SenseTimeExtensionDelegateC1EvE3$_9NS_9allocatorIS6_EEFiRKN9rapidjson15GenericDocumentINS9_4UTF8IcEENS9_19MemoryPoolAllocatorINS9_12CrtAllocatorEEESE_EEEE18destroy_deallocateEv', symObjAddr: 0x6360, symBinAddr: 0x1E93C, symSize: 0x4 }
  - { offsetInCU: 0x3E321, offset: 0xD63EF, size: 0x8, addend: 0x0, symName: '__ZNSt3__110__function6__funcIZN5agora3rtc9extension26SenseTimeExtensionDelegateC1EvE3$_9NS_9allocatorIS6_EEFiRKN9rapidjson15GenericDocumentINS9_4UTF8IcEENS9_19MemoryPoolAllocatorINS9_12CrtAllocatorEEESE_EEEE18destroy_deallocateEv', symObjAddr: 0x6360, symBinAddr: 0x1E93C, symSize: 0x4 }
  - { offsetInCU: 0x3E345, offset: 0xD6413, size: 0x8, addend: 0x0, symName: '__ZNSt3__110__function6__funcIZN5agora3rtc9extension26SenseTimeExtensionDelegateC1EvE3$_9NS_9allocatorIS6_EEFiRKN9rapidjson15GenericDocumentINS9_4UTF8IcEENS9_19MemoryPoolAllocatorINS9_12CrtAllocatorEEESE_EEEE18destroy_deallocateEv', symObjAddr: 0x6360, symBinAddr: 0x1E93C, symSize: 0x4 }
  - { offsetInCU: 0x3E371, offset: 0xD643F, size: 0x8, addend: 0x0, symName: '__ZNSt3__110__function6__funcIZN5agora3rtc9extension26SenseTimeExtensionDelegateC1EvE3$_9NS_9allocatorIS6_EEFiRKN9rapidjson15GenericDocumentINS9_4UTF8IcEENS9_19MemoryPoolAllocatorINS9_12CrtAllocatorEEESE_EEEE18destroy_deallocateEv', symObjAddr: 0x6360, symBinAddr: 0x1E93C, symSize: 0x4 }
  - { offsetInCU: 0x3E398, offset: 0xD6466, size: 0x8, addend: 0x0, symName: '__ZNSt3__110__function6__funcIZN5agora3rtc9extension26SenseTimeExtensionDelegateC1EvE3$_9NS_9allocatorIS6_EEFiRKN9rapidjson15GenericDocumentINS9_4UTF8IcEENS9_19MemoryPoolAllocatorINS9_12CrtAllocatorEEESE_EEEE18destroy_deallocateEv', symObjAddr: 0x6360, symBinAddr: 0x1E93C, symSize: 0x4 }
  - { offsetInCU: 0x3E444, offset: 0xD6512, size: 0x8, addend: 0x0, symName: '__ZNSt3__110__function6__funcIZN5agora3rtc9extension26SenseTimeExtensionDelegateC1EvE3$_9NS_9allocatorIS6_EEFiRKN9rapidjson15GenericDocumentINS9_4UTF8IcEENS9_19MemoryPoolAllocatorINS9_12CrtAllocatorEEESE_EEEEclESI_', symObjAddr: 0x6364, symBinAddr: 0x1E940, symSize: 0x84 }
  - { offsetInCU: 0x3E5E8, offset: 0xD66B6, size: 0x8, addend: 0x0, symName: '__ZNKSt3__110__function6__funcIZN5agora3rtc9extension26SenseTimeExtensionDelegateC1EvE3$_9NS_9allocatorIS6_EEFiRKN9rapidjson15GenericDocumentINS9_4UTF8IcEENS9_19MemoryPoolAllocatorINS9_12CrtAllocatorEEESE_EEEE6targetERKSt9type_info', symObjAddr: 0x63E8, symBinAddr: 0x1E9C4, symSize: 0x3C }
  - { offsetInCU: 0x3E637, offset: 0xD6705, size: 0x8, addend: 0x0, symName: '__ZNKSt3__110__function6__funcIZN5agora3rtc9extension26SenseTimeExtensionDelegateC1EvE3$_9NS_9allocatorIS6_EEFiRKN9rapidjson15GenericDocumentINS9_4UTF8IcEENS9_19MemoryPoolAllocatorINS9_12CrtAllocatorEEESE_EEEE11target_typeEv', symObjAddr: 0x6424, symBinAddr: 0x1EA00, symSize: 0xC }
  - { offsetInCU: 0x3E65C, offset: 0xD672A, size: 0x8, addend: 0x0, symName: '__ZNSt3__110__function6__funcIZN5agora3rtc9extension26SenseTimeExtensionDelegateC1EvE4$_10NS_9allocatorIS6_EEFiRKN9rapidjson15GenericDocumentINS9_4UTF8IcEENS9_19MemoryPoolAllocatorINS9_12CrtAllocatorEEESE_EEEED1Ev', symObjAddr: 0x6430, symBinAddr: 0x1EA0C, symSize: 0x4 }
  - { offsetInCU: 0x3E688, offset: 0xD6756, size: 0x8, addend: 0x0, symName: '__ZNSt3__110__function6__funcIZN5agora3rtc9extension26SenseTimeExtensionDelegateC1EvE4$_10NS_9allocatorIS6_EEFiRKN9rapidjson15GenericDocumentINS9_4UTF8IcEENS9_19MemoryPoolAllocatorINS9_12CrtAllocatorEEESE_EEEED0Ev', symObjAddr: 0x6434, symBinAddr: 0x1EA10, symSize: 0x4 }
  - { offsetInCU: 0x3E88C, offset: 0xD695A, size: 0x8, addend: 0x0, symName: '__ZNKSt3__110__function6__funcIZN5agora3rtc9extension26SenseTimeExtensionDelegateC1EvE4$_10NS_9allocatorIS6_EEFiRKN9rapidjson15GenericDocumentINS9_4UTF8IcEENS9_19MemoryPoolAllocatorINS9_12CrtAllocatorEEESE_EEEE7__cloneEv', symObjAddr: 0x6438, symBinAddr: 0x1EA14, symSize: 0x34 }
  - { offsetInCU: 0x3EB8A, offset: 0xD6C58, size: 0x8, addend: 0x0, symName: '__ZNKSt3__110__function6__funcIZN5agora3rtc9extension26SenseTimeExtensionDelegateC1EvE4$_10NS_9allocatorIS6_EEFiRKN9rapidjson15GenericDocumentINS9_4UTF8IcEENS9_19MemoryPoolAllocatorINS9_12CrtAllocatorEEESE_EEEE7__cloneEPNS0_6__baseISJ_EE', symObjAddr: 0x646C, symBinAddr: 0x1EA48, symSize: 0x14 }
  - { offsetInCU: 0x3EBC2, offset: 0xD6C90, size: 0x8, addend: 0x0, symName: '__ZNKSt3__110__function6__funcIZN5agora3rtc9extension26SenseTimeExtensionDelegateC1EvE4$_10NS_9allocatorIS6_EEFiRKN9rapidjson15GenericDocumentINS9_4UTF8IcEENS9_19MemoryPoolAllocatorINS9_12CrtAllocatorEEESE_EEEE7__cloneEPNS0_6__baseISJ_EE', symObjAddr: 0x646C, symBinAddr: 0x1EA48, symSize: 0x14 }
  - { offsetInCU: 0x3EBF1, offset: 0xD6CBF, size: 0x8, addend: 0x0, symName: '__ZNKSt3__110__function6__funcIZN5agora3rtc9extension26SenseTimeExtensionDelegateC1EvE4$_10NS_9allocatorIS6_EEFiRKN9rapidjson15GenericDocumentINS9_4UTF8IcEENS9_19MemoryPoolAllocatorINS9_12CrtAllocatorEEESE_EEEE7__cloneEPNS0_6__baseISJ_EE', symObjAddr: 0x646C, symBinAddr: 0x1EA48, symSize: 0x14 }
  - { offsetInCU: 0x3EC20, offset: 0xD6CEE, size: 0x8, addend: 0x0, symName: '__ZNKSt3__110__function6__funcIZN5agora3rtc9extension26SenseTimeExtensionDelegateC1EvE4$_10NS_9allocatorIS6_EEFiRKN9rapidjson15GenericDocumentINS9_4UTF8IcEENS9_19MemoryPoolAllocatorINS9_12CrtAllocatorEEESE_EEEE7__cloneEPNS0_6__baseISJ_EE', symObjAddr: 0x646C, symBinAddr: 0x1EA48, symSize: 0x14 }
  - { offsetInCU: 0x3EC36, offset: 0xD6D04, size: 0x8, addend: 0x0, symName: '__ZNKSt3__110__function6__funcIZN5agora3rtc9extension26SenseTimeExtensionDelegateC1EvE4$_10NS_9allocatorIS6_EEFiRKN9rapidjson15GenericDocumentINS9_4UTF8IcEENS9_19MemoryPoolAllocatorINS9_12CrtAllocatorEEESE_EEEE7__cloneEPNS0_6__baseISJ_EE', symObjAddr: 0x646C, symBinAddr: 0x1EA48, symSize: 0x14 }
  - { offsetInCU: 0x3EC4A, offset: 0xD6D18, size: 0x8, addend: 0x0, symName: '__ZNKSt3__110__function6__funcIZN5agora3rtc9extension26SenseTimeExtensionDelegateC1EvE4$_10NS_9allocatorIS6_EEFiRKN9rapidjson15GenericDocumentINS9_4UTF8IcEENS9_19MemoryPoolAllocatorINS9_12CrtAllocatorEEESE_EEEE7__cloneEPNS0_6__baseISJ_EE', symObjAddr: 0x646C, symBinAddr: 0x1EA48, symSize: 0x14 }
  - { offsetInCU: 0x3EC5E, offset: 0xD6D2C, size: 0x8, addend: 0x0, symName: '__ZNKSt3__110__function6__funcIZN5agora3rtc9extension26SenseTimeExtensionDelegateC1EvE4$_10NS_9allocatorIS6_EEFiRKN9rapidjson15GenericDocumentINS9_4UTF8IcEENS9_19MemoryPoolAllocatorINS9_12CrtAllocatorEEESE_EEEE7__cloneEPNS0_6__baseISJ_EE', symObjAddr: 0x646C, symBinAddr: 0x1EA48, symSize: 0x14 }
  - { offsetInCU: 0x3EC73, offset: 0xD6D41, size: 0x8, addend: 0x0, symName: '__ZNKSt3__110__function6__funcIZN5agora3rtc9extension26SenseTimeExtensionDelegateC1EvE4$_10NS_9allocatorIS6_EEFiRKN9rapidjson15GenericDocumentINS9_4UTF8IcEENS9_19MemoryPoolAllocatorINS9_12CrtAllocatorEEESE_EEEE7__cloneEPNS0_6__baseISJ_EE', symObjAddr: 0x646C, symBinAddr: 0x1EA48, symSize: 0x14 }
  - { offsetInCU: 0x3EC8A, offset: 0xD6D58, size: 0x8, addend: 0x0, symName: '__ZNSt3__110__function6__funcIZN5agora3rtc9extension26SenseTimeExtensionDelegateC1EvE4$_10NS_9allocatorIS6_EEFiRKN9rapidjson15GenericDocumentINS9_4UTF8IcEENS9_19MemoryPoolAllocatorINS9_12CrtAllocatorEEESE_EEEE7destroyEv', symObjAddr: 0x6480, symBinAddr: 0x1EA5C, symSize: 0x4 }
  - { offsetInCU: 0x3ECDB, offset: 0xD6DA9, size: 0x8, addend: 0x0, symName: '__ZNSt3__110__function6__funcIZN5agora3rtc9extension26SenseTimeExtensionDelegateC1EvE4$_10NS_9allocatorIS6_EEFiRKN9rapidjson15GenericDocumentINS9_4UTF8IcEENS9_19MemoryPoolAllocatorINS9_12CrtAllocatorEEESE_EEEE18destroy_deallocateEv', symObjAddr: 0x6484, symBinAddr: 0x1EA60, symSize: 0x4 }
  - { offsetInCU: 0x3ED11, offset: 0xD6DDF, size: 0x8, addend: 0x0, symName: '__ZNSt3__110__function6__funcIZN5agora3rtc9extension26SenseTimeExtensionDelegateC1EvE4$_10NS_9allocatorIS6_EEFiRKN9rapidjson15GenericDocumentINS9_4UTF8IcEENS9_19MemoryPoolAllocatorINS9_12CrtAllocatorEEESE_EEEE18destroy_deallocateEv', symObjAddr: 0x6484, symBinAddr: 0x1EA60, symSize: 0x4 }
  - { offsetInCU: 0x3ED35, offset: 0xD6E03, size: 0x8, addend: 0x0, symName: '__ZNSt3__110__function6__funcIZN5agora3rtc9extension26SenseTimeExtensionDelegateC1EvE4$_10NS_9allocatorIS6_EEFiRKN9rapidjson15GenericDocumentINS9_4UTF8IcEENS9_19MemoryPoolAllocatorINS9_12CrtAllocatorEEESE_EEEE18destroy_deallocateEv', symObjAddr: 0x6484, symBinAddr: 0x1EA60, symSize: 0x4 }
  - { offsetInCU: 0x3ED61, offset: 0xD6E2F, size: 0x8, addend: 0x0, symName: '__ZNSt3__110__function6__funcIZN5agora3rtc9extension26SenseTimeExtensionDelegateC1EvE4$_10NS_9allocatorIS6_EEFiRKN9rapidjson15GenericDocumentINS9_4UTF8IcEENS9_19MemoryPoolAllocatorINS9_12CrtAllocatorEEESE_EEEE18destroy_deallocateEv', symObjAddr: 0x6484, symBinAddr: 0x1EA60, symSize: 0x4 }
  - { offsetInCU: 0x3ED88, offset: 0xD6E56, size: 0x8, addend: 0x0, symName: '__ZNSt3__110__function6__funcIZN5agora3rtc9extension26SenseTimeExtensionDelegateC1EvE4$_10NS_9allocatorIS6_EEFiRKN9rapidjson15GenericDocumentINS9_4UTF8IcEENS9_19MemoryPoolAllocatorINS9_12CrtAllocatorEEESE_EEEE18destroy_deallocateEv', symObjAddr: 0x6484, symBinAddr: 0x1EA60, symSize: 0x4 }
  - { offsetInCU: 0x3EE34, offset: 0xD6F02, size: 0x8, addend: 0x0, symName: '__ZNSt3__110__function6__funcIZN5agora3rtc9extension26SenseTimeExtensionDelegateC1EvE4$_10NS_9allocatorIS6_EEFiRKN9rapidjson15GenericDocumentINS9_4UTF8IcEENS9_19MemoryPoolAllocatorINS9_12CrtAllocatorEEESE_EEEEclESI_', symObjAddr: 0x6488, symBinAddr: 0x1EA64, symSize: 0x124 }
  - { offsetInCU: 0x3F15B, offset: 0xD7229, size: 0x8, addend: 0x0, symName: '__ZNKSt3__110__function6__funcIZN5agora3rtc9extension26SenseTimeExtensionDelegateC1EvE4$_10NS_9allocatorIS6_EEFiRKN9rapidjson15GenericDocumentINS9_4UTF8IcEENS9_19MemoryPoolAllocatorINS9_12CrtAllocatorEEESE_EEEE6targetERKSt9type_info', symObjAddr: 0x65AC, symBinAddr: 0x1EB88, symSize: 0x3C }
  - { offsetInCU: 0x3F166, offset: 0xD7234, size: 0x8, addend: 0x0, symName: '__ZNSt3__110__function6__funcIZN5agora3rtc9extension26SenseTimeExtensionDelegateC1EvE4$_10NS_9allocatorIS6_EEFiRKN9rapidjson15GenericDocumentINS9_4UTF8IcEENS9_19MemoryPoolAllocatorINS9_12CrtAllocatorEEESE_EEEEclESI_.cold.1', symObjAddr: 0x8D14, symBinAddr: 0x92B584, symSize: 0x24 }
  - { offsetInCU: 0x3F1EF, offset: 0xD72BD, size: 0x8, addend: 0x0, symName: '__ZNKSt3__110__function6__funcIZN5agora3rtc9extension26SenseTimeExtensionDelegateC1EvE4$_10NS_9allocatorIS6_EEFiRKN9rapidjson15GenericDocumentINS9_4UTF8IcEENS9_19MemoryPoolAllocatorINS9_12CrtAllocatorEEESE_EEEE6targetERKSt9type_info', symObjAddr: 0x65AC, symBinAddr: 0x1EB88, symSize: 0x3C }
  - { offsetInCU: 0x3F23E, offset: 0xD730C, size: 0x8, addend: 0x0, symName: '__ZNKSt3__110__function6__funcIZN5agora3rtc9extension26SenseTimeExtensionDelegateC1EvE4$_10NS_9allocatorIS6_EEFiRKN9rapidjson15GenericDocumentINS9_4UTF8IcEENS9_19MemoryPoolAllocatorINS9_12CrtAllocatorEEESE_EEEE11target_typeEv', symObjAddr: 0x65E8, symBinAddr: 0x1EBC4, symSize: 0xC }
  - { offsetInCU: 0x3F263, offset: 0xD7331, size: 0x8, addend: 0x0, symName: '__ZNSt3__110__function6__funcIZN5agora3rtc9extension26SenseTimeExtensionDelegateC1EvE4$_11NS_9allocatorIS6_EEFiRKN9rapidjson15GenericDocumentINS9_4UTF8IcEENS9_19MemoryPoolAllocatorINS9_12CrtAllocatorEEESE_EEEED1Ev', symObjAddr: 0x65F4, symBinAddr: 0x1EBD0, symSize: 0x4 }
  - { offsetInCU: 0x3F28F, offset: 0xD735D, size: 0x8, addend: 0x0, symName: '__ZNSt3__110__function6__funcIZN5agora3rtc9extension26SenseTimeExtensionDelegateC1EvE4$_11NS_9allocatorIS6_EEFiRKN9rapidjson15GenericDocumentINS9_4UTF8IcEENS9_19MemoryPoolAllocatorINS9_12CrtAllocatorEEESE_EEEED0Ev', symObjAddr: 0x65F8, symBinAddr: 0x1EBD4, symSize: 0x4 }
  - { offsetInCU: 0x3F493, offset: 0xD7561, size: 0x8, addend: 0x0, symName: '__ZNKSt3__110__function6__funcIZN5agora3rtc9extension26SenseTimeExtensionDelegateC1EvE4$_11NS_9allocatorIS6_EEFiRKN9rapidjson15GenericDocumentINS9_4UTF8IcEENS9_19MemoryPoolAllocatorINS9_12CrtAllocatorEEESE_EEEE7__cloneEv', symObjAddr: 0x65FC, symBinAddr: 0x1EBD8, symSize: 0x34 }
  - { offsetInCU: 0x3F791, offset: 0xD785F, size: 0x8, addend: 0x0, symName: '__ZNKSt3__110__function6__funcIZN5agora3rtc9extension26SenseTimeExtensionDelegateC1EvE4$_11NS_9allocatorIS6_EEFiRKN9rapidjson15GenericDocumentINS9_4UTF8IcEENS9_19MemoryPoolAllocatorINS9_12CrtAllocatorEEESE_EEEE7__cloneEPNS0_6__baseISJ_EE', symObjAddr: 0x6630, symBinAddr: 0x1EC0C, symSize: 0x14 }
  - { offsetInCU: 0x3F7C9, offset: 0xD7897, size: 0x8, addend: 0x0, symName: '__ZNKSt3__110__function6__funcIZN5agora3rtc9extension26SenseTimeExtensionDelegateC1EvE4$_11NS_9allocatorIS6_EEFiRKN9rapidjson15GenericDocumentINS9_4UTF8IcEENS9_19MemoryPoolAllocatorINS9_12CrtAllocatorEEESE_EEEE7__cloneEPNS0_6__baseISJ_EE', symObjAddr: 0x6630, symBinAddr: 0x1EC0C, symSize: 0x14 }
  - { offsetInCU: 0x3F7F8, offset: 0xD78C6, size: 0x8, addend: 0x0, symName: '__ZNKSt3__110__function6__funcIZN5agora3rtc9extension26SenseTimeExtensionDelegateC1EvE4$_11NS_9allocatorIS6_EEFiRKN9rapidjson15GenericDocumentINS9_4UTF8IcEENS9_19MemoryPoolAllocatorINS9_12CrtAllocatorEEESE_EEEE7__cloneEPNS0_6__baseISJ_EE', symObjAddr: 0x6630, symBinAddr: 0x1EC0C, symSize: 0x14 }
  - { offsetInCU: 0x3F827, offset: 0xD78F5, size: 0x8, addend: 0x0, symName: '__ZNKSt3__110__function6__funcIZN5agora3rtc9extension26SenseTimeExtensionDelegateC1EvE4$_11NS_9allocatorIS6_EEFiRKN9rapidjson15GenericDocumentINS9_4UTF8IcEENS9_19MemoryPoolAllocatorINS9_12CrtAllocatorEEESE_EEEE7__cloneEPNS0_6__baseISJ_EE', symObjAddr: 0x6630, symBinAddr: 0x1EC0C, symSize: 0x14 }
  - { offsetInCU: 0x3F83D, offset: 0xD790B, size: 0x8, addend: 0x0, symName: '__ZNKSt3__110__function6__funcIZN5agora3rtc9extension26SenseTimeExtensionDelegateC1EvE4$_11NS_9allocatorIS6_EEFiRKN9rapidjson15GenericDocumentINS9_4UTF8IcEENS9_19MemoryPoolAllocatorINS9_12CrtAllocatorEEESE_EEEE7__cloneEPNS0_6__baseISJ_EE', symObjAddr: 0x6630, symBinAddr: 0x1EC0C, symSize: 0x14 }
  - { offsetInCU: 0x3F851, offset: 0xD791F, size: 0x8, addend: 0x0, symName: '__ZNKSt3__110__function6__funcIZN5agora3rtc9extension26SenseTimeExtensionDelegateC1EvE4$_11NS_9allocatorIS6_EEFiRKN9rapidjson15GenericDocumentINS9_4UTF8IcEENS9_19MemoryPoolAllocatorINS9_12CrtAllocatorEEESE_EEEE7__cloneEPNS0_6__baseISJ_EE', symObjAddr: 0x6630, symBinAddr: 0x1EC0C, symSize: 0x14 }
  - { offsetInCU: 0x3F865, offset: 0xD7933, size: 0x8, addend: 0x0, symName: '__ZNKSt3__110__function6__funcIZN5agora3rtc9extension26SenseTimeExtensionDelegateC1EvE4$_11NS_9allocatorIS6_EEFiRKN9rapidjson15GenericDocumentINS9_4UTF8IcEENS9_19MemoryPoolAllocatorINS9_12CrtAllocatorEEESE_EEEE7__cloneEPNS0_6__baseISJ_EE', symObjAddr: 0x6630, symBinAddr: 0x1EC0C, symSize: 0x14 }
  - { offsetInCU: 0x3F87A, offset: 0xD7948, size: 0x8, addend: 0x0, symName: '__ZNKSt3__110__function6__funcIZN5agora3rtc9extension26SenseTimeExtensionDelegateC1EvE4$_11NS_9allocatorIS6_EEFiRKN9rapidjson15GenericDocumentINS9_4UTF8IcEENS9_19MemoryPoolAllocatorINS9_12CrtAllocatorEEESE_EEEE7__cloneEPNS0_6__baseISJ_EE', symObjAddr: 0x6630, symBinAddr: 0x1EC0C, symSize: 0x14 }
  - { offsetInCU: 0x3F891, offset: 0xD795F, size: 0x8, addend: 0x0, symName: '__ZNSt3__110__function6__funcIZN5agora3rtc9extension26SenseTimeExtensionDelegateC1EvE4$_11NS_9allocatorIS6_EEFiRKN9rapidjson15GenericDocumentINS9_4UTF8IcEENS9_19MemoryPoolAllocatorINS9_12CrtAllocatorEEESE_EEEE7destroyEv', symObjAddr: 0x6644, symBinAddr: 0x1EC20, symSize: 0x4 }
  - { offsetInCU: 0x3F8E2, offset: 0xD79B0, size: 0x8, addend: 0x0, symName: '__ZNSt3__110__function6__funcIZN5agora3rtc9extension26SenseTimeExtensionDelegateC1EvE4$_11NS_9allocatorIS6_EEFiRKN9rapidjson15GenericDocumentINS9_4UTF8IcEENS9_19MemoryPoolAllocatorINS9_12CrtAllocatorEEESE_EEEE18destroy_deallocateEv', symObjAddr: 0x6648, symBinAddr: 0x1EC24, symSize: 0x4 }
  - { offsetInCU: 0x3F918, offset: 0xD79E6, size: 0x8, addend: 0x0, symName: '__ZNSt3__110__function6__funcIZN5agora3rtc9extension26SenseTimeExtensionDelegateC1EvE4$_11NS_9allocatorIS6_EEFiRKN9rapidjson15GenericDocumentINS9_4UTF8IcEENS9_19MemoryPoolAllocatorINS9_12CrtAllocatorEEESE_EEEE18destroy_deallocateEv', symObjAddr: 0x6648, symBinAddr: 0x1EC24, symSize: 0x4 }
  - { offsetInCU: 0x3F93C, offset: 0xD7A0A, size: 0x8, addend: 0x0, symName: '__ZNSt3__110__function6__funcIZN5agora3rtc9extension26SenseTimeExtensionDelegateC1EvE4$_11NS_9allocatorIS6_EEFiRKN9rapidjson15GenericDocumentINS9_4UTF8IcEENS9_19MemoryPoolAllocatorINS9_12CrtAllocatorEEESE_EEEE18destroy_deallocateEv', symObjAddr: 0x6648, symBinAddr: 0x1EC24, symSize: 0x4 }
  - { offsetInCU: 0x3F968, offset: 0xD7A36, size: 0x8, addend: 0x0, symName: '__ZNSt3__110__function6__funcIZN5agora3rtc9extension26SenseTimeExtensionDelegateC1EvE4$_11NS_9allocatorIS6_EEFiRKN9rapidjson15GenericDocumentINS9_4UTF8IcEENS9_19MemoryPoolAllocatorINS9_12CrtAllocatorEEESE_EEEE18destroy_deallocateEv', symObjAddr: 0x6648, symBinAddr: 0x1EC24, symSize: 0x4 }
  - { offsetInCU: 0x3F98F, offset: 0xD7A5D, size: 0x8, addend: 0x0, symName: '__ZNSt3__110__function6__funcIZN5agora3rtc9extension26SenseTimeExtensionDelegateC1EvE4$_11NS_9allocatorIS6_EEFiRKN9rapidjson15GenericDocumentINS9_4UTF8IcEENS9_19MemoryPoolAllocatorINS9_12CrtAllocatorEEESE_EEEE18destroy_deallocateEv', symObjAddr: 0x6648, symBinAddr: 0x1EC24, symSize: 0x4 }
  - { offsetInCU: 0x3FA3B, offset: 0xD7B09, size: 0x8, addend: 0x0, symName: '__ZNSt3__110__function6__funcIZN5agora3rtc9extension26SenseTimeExtensionDelegateC1EvE4$_11NS_9allocatorIS6_EEFiRKN9rapidjson15GenericDocumentINS9_4UTF8IcEENS9_19MemoryPoolAllocatorINS9_12CrtAllocatorEEESE_EEEEclESI_', symObjAddr: 0x664C, symBinAddr: 0x1EC28, symSize: 0x8 }
  - { offsetInCU: 0x3FAD6, offset: 0xD7BA4, size: 0x8, addend: 0x0, symName: '__ZNKSt3__110__function6__funcIZN5agora3rtc9extension26SenseTimeExtensionDelegateC1EvE4$_11NS_9allocatorIS6_EEFiRKN9rapidjson15GenericDocumentINS9_4UTF8IcEENS9_19MemoryPoolAllocatorINS9_12CrtAllocatorEEESE_EEEE6targetERKSt9type_info', symObjAddr: 0x6654, symBinAddr: 0x1EC30, symSize: 0x3C }
  - { offsetInCU: 0x3FB25, offset: 0xD7BF3, size: 0x8, addend: 0x0, symName: '__ZNKSt3__110__function6__funcIZN5agora3rtc9extension26SenseTimeExtensionDelegateC1EvE4$_11NS_9allocatorIS6_EEFiRKN9rapidjson15GenericDocumentINS9_4UTF8IcEENS9_19MemoryPoolAllocatorINS9_12CrtAllocatorEEESE_EEEE11target_typeEv', symObjAddr: 0x6690, symBinAddr: 0x1EC6C, symSize: 0xC }
  - { offsetInCU: 0x3FB4A, offset: 0xD7C18, size: 0x8, addend: 0x0, symName: '__ZNSt3__110__function6__funcIZN5agora3rtc9extension26SenseTimeExtensionDelegateC1EvE4$_12NS_9allocatorIS6_EEFiRKN9rapidjson15GenericDocumentINS9_4UTF8IcEENS9_19MemoryPoolAllocatorINS9_12CrtAllocatorEEESE_EEEED1Ev', symObjAddr: 0x669C, symBinAddr: 0x1EC78, symSize: 0x4 }
  - { offsetInCU: 0x3FB76, offset: 0xD7C44, size: 0x8, addend: 0x0, symName: '__ZNSt3__110__function6__funcIZN5agora3rtc9extension26SenseTimeExtensionDelegateC1EvE4$_12NS_9allocatorIS6_EEFiRKN9rapidjson15GenericDocumentINS9_4UTF8IcEENS9_19MemoryPoolAllocatorINS9_12CrtAllocatorEEESE_EEEED0Ev', symObjAddr: 0x66A0, symBinAddr: 0x1EC7C, symSize: 0x4 }
  - { offsetInCU: 0x3FD7A, offset: 0xD7E48, size: 0x8, addend: 0x0, symName: '__ZNKSt3__110__function6__funcIZN5agora3rtc9extension26SenseTimeExtensionDelegateC1EvE4$_12NS_9allocatorIS6_EEFiRKN9rapidjson15GenericDocumentINS9_4UTF8IcEENS9_19MemoryPoolAllocatorINS9_12CrtAllocatorEEESE_EEEE7__cloneEv', symObjAddr: 0x66A4, symBinAddr: 0x1EC80, symSize: 0x34 }
  - { offsetInCU: 0x40078, offset: 0xD8146, size: 0x8, addend: 0x0, symName: '__ZNKSt3__110__function6__funcIZN5agora3rtc9extension26SenseTimeExtensionDelegateC1EvE4$_12NS_9allocatorIS6_EEFiRKN9rapidjson15GenericDocumentINS9_4UTF8IcEENS9_19MemoryPoolAllocatorINS9_12CrtAllocatorEEESE_EEEE7__cloneEPNS0_6__baseISJ_EE', symObjAddr: 0x66D8, symBinAddr: 0x1ECB4, symSize: 0x14 }
  - { offsetInCU: 0x400B0, offset: 0xD817E, size: 0x8, addend: 0x0, symName: '__ZNKSt3__110__function6__funcIZN5agora3rtc9extension26SenseTimeExtensionDelegateC1EvE4$_12NS_9allocatorIS6_EEFiRKN9rapidjson15GenericDocumentINS9_4UTF8IcEENS9_19MemoryPoolAllocatorINS9_12CrtAllocatorEEESE_EEEE7__cloneEPNS0_6__baseISJ_EE', symObjAddr: 0x66D8, symBinAddr: 0x1ECB4, symSize: 0x14 }
  - { offsetInCU: 0x400DF, offset: 0xD81AD, size: 0x8, addend: 0x0, symName: '__ZNKSt3__110__function6__funcIZN5agora3rtc9extension26SenseTimeExtensionDelegateC1EvE4$_12NS_9allocatorIS6_EEFiRKN9rapidjson15GenericDocumentINS9_4UTF8IcEENS9_19MemoryPoolAllocatorINS9_12CrtAllocatorEEESE_EEEE7__cloneEPNS0_6__baseISJ_EE', symObjAddr: 0x66D8, symBinAddr: 0x1ECB4, symSize: 0x14 }
  - { offsetInCU: 0x4010E, offset: 0xD81DC, size: 0x8, addend: 0x0, symName: '__ZNKSt3__110__function6__funcIZN5agora3rtc9extension26SenseTimeExtensionDelegateC1EvE4$_12NS_9allocatorIS6_EEFiRKN9rapidjson15GenericDocumentINS9_4UTF8IcEENS9_19MemoryPoolAllocatorINS9_12CrtAllocatorEEESE_EEEE7__cloneEPNS0_6__baseISJ_EE', symObjAddr: 0x66D8, symBinAddr: 0x1ECB4, symSize: 0x14 }
  - { offsetInCU: 0x40124, offset: 0xD81F2, size: 0x8, addend: 0x0, symName: '__ZNKSt3__110__function6__funcIZN5agora3rtc9extension26SenseTimeExtensionDelegateC1EvE4$_12NS_9allocatorIS6_EEFiRKN9rapidjson15GenericDocumentINS9_4UTF8IcEENS9_19MemoryPoolAllocatorINS9_12CrtAllocatorEEESE_EEEE7__cloneEPNS0_6__baseISJ_EE', symObjAddr: 0x66D8, symBinAddr: 0x1ECB4, symSize: 0x14 }
  - { offsetInCU: 0x40138, offset: 0xD8206, size: 0x8, addend: 0x0, symName: '__ZNKSt3__110__function6__funcIZN5agora3rtc9extension26SenseTimeExtensionDelegateC1EvE4$_12NS_9allocatorIS6_EEFiRKN9rapidjson15GenericDocumentINS9_4UTF8IcEENS9_19MemoryPoolAllocatorINS9_12CrtAllocatorEEESE_EEEE7__cloneEPNS0_6__baseISJ_EE', symObjAddr: 0x66D8, symBinAddr: 0x1ECB4, symSize: 0x14 }
  - { offsetInCU: 0x4014C, offset: 0xD821A, size: 0x8, addend: 0x0, symName: '__ZNKSt3__110__function6__funcIZN5agora3rtc9extension26SenseTimeExtensionDelegateC1EvE4$_12NS_9allocatorIS6_EEFiRKN9rapidjson15GenericDocumentINS9_4UTF8IcEENS9_19MemoryPoolAllocatorINS9_12CrtAllocatorEEESE_EEEE7__cloneEPNS0_6__baseISJ_EE', symObjAddr: 0x66D8, symBinAddr: 0x1ECB4, symSize: 0x14 }
  - { offsetInCU: 0x40161, offset: 0xD822F, size: 0x8, addend: 0x0, symName: '__ZNKSt3__110__function6__funcIZN5agora3rtc9extension26SenseTimeExtensionDelegateC1EvE4$_12NS_9allocatorIS6_EEFiRKN9rapidjson15GenericDocumentINS9_4UTF8IcEENS9_19MemoryPoolAllocatorINS9_12CrtAllocatorEEESE_EEEE7__cloneEPNS0_6__baseISJ_EE', symObjAddr: 0x66D8, symBinAddr: 0x1ECB4, symSize: 0x14 }
  - { offsetInCU: 0x40178, offset: 0xD8246, size: 0x8, addend: 0x0, symName: '__ZNSt3__110__function6__funcIZN5agora3rtc9extension26SenseTimeExtensionDelegateC1EvE4$_12NS_9allocatorIS6_EEFiRKN9rapidjson15GenericDocumentINS9_4UTF8IcEENS9_19MemoryPoolAllocatorINS9_12CrtAllocatorEEESE_EEEE7destroyEv', symObjAddr: 0x66EC, symBinAddr: 0x1ECC8, symSize: 0x4 }
  - { offsetInCU: 0x401C9, offset: 0xD8297, size: 0x8, addend: 0x0, symName: '__ZNSt3__110__function6__funcIZN5agora3rtc9extension26SenseTimeExtensionDelegateC1EvE4$_12NS_9allocatorIS6_EEFiRKN9rapidjson15GenericDocumentINS9_4UTF8IcEENS9_19MemoryPoolAllocatorINS9_12CrtAllocatorEEESE_EEEE18destroy_deallocateEv', symObjAddr: 0x66F0, symBinAddr: 0x1ECCC, symSize: 0x4 }
  - { offsetInCU: 0x401FF, offset: 0xD82CD, size: 0x8, addend: 0x0, symName: '__ZNSt3__110__function6__funcIZN5agora3rtc9extension26SenseTimeExtensionDelegateC1EvE4$_12NS_9allocatorIS6_EEFiRKN9rapidjson15GenericDocumentINS9_4UTF8IcEENS9_19MemoryPoolAllocatorINS9_12CrtAllocatorEEESE_EEEE18destroy_deallocateEv', symObjAddr: 0x66F0, symBinAddr: 0x1ECCC, symSize: 0x4 }
  - { offsetInCU: 0x40223, offset: 0xD82F1, size: 0x8, addend: 0x0, symName: '__ZNSt3__110__function6__funcIZN5agora3rtc9extension26SenseTimeExtensionDelegateC1EvE4$_12NS_9allocatorIS6_EEFiRKN9rapidjson15GenericDocumentINS9_4UTF8IcEENS9_19MemoryPoolAllocatorINS9_12CrtAllocatorEEESE_EEEE18destroy_deallocateEv', symObjAddr: 0x66F0, symBinAddr: 0x1ECCC, symSize: 0x4 }
  - { offsetInCU: 0x4024F, offset: 0xD831D, size: 0x8, addend: 0x0, symName: '__ZNSt3__110__function6__funcIZN5agora3rtc9extension26SenseTimeExtensionDelegateC1EvE4$_12NS_9allocatorIS6_EEFiRKN9rapidjson15GenericDocumentINS9_4UTF8IcEENS9_19MemoryPoolAllocatorINS9_12CrtAllocatorEEESE_EEEE18destroy_deallocateEv', symObjAddr: 0x66F0, symBinAddr: 0x1ECCC, symSize: 0x4 }
  - { offsetInCU: 0x40276, offset: 0xD8344, size: 0x8, addend: 0x0, symName: '__ZNSt3__110__function6__funcIZN5agora3rtc9extension26SenseTimeExtensionDelegateC1EvE4$_12NS_9allocatorIS6_EEFiRKN9rapidjson15GenericDocumentINS9_4UTF8IcEENS9_19MemoryPoolAllocatorINS9_12CrtAllocatorEEESE_EEEE18destroy_deallocateEv', symObjAddr: 0x66F0, symBinAddr: 0x1ECCC, symSize: 0x4 }
  - { offsetInCU: 0x40322, offset: 0xD83F0, size: 0x8, addend: 0x0, symName: '__ZNSt3__110__function6__funcIZN5agora3rtc9extension26SenseTimeExtensionDelegateC1EvE4$_12NS_9allocatorIS6_EEFiRKN9rapidjson15GenericDocumentINS9_4UTF8IcEENS9_19MemoryPoolAllocatorINS9_12CrtAllocatorEEESE_EEEEclESI_', symObjAddr: 0x66F4, symBinAddr: 0x1ECD0, symSize: 0x84 }
  - { offsetInCU: 0x404C6, offset: 0xD8594, size: 0x8, addend: 0x0, symName: '__ZNKSt3__110__function6__funcIZN5agora3rtc9extension26SenseTimeExtensionDelegateC1EvE4$_12NS_9allocatorIS6_EEFiRKN9rapidjson15GenericDocumentINS9_4UTF8IcEENS9_19MemoryPoolAllocatorINS9_12CrtAllocatorEEESE_EEEE6targetERKSt9type_info', symObjAddr: 0x6778, symBinAddr: 0x1ED54, symSize: 0x3C }
  - { offsetInCU: 0x40515, offset: 0xD85E3, size: 0x8, addend: 0x0, symName: '__ZNKSt3__110__function6__funcIZN5agora3rtc9extension26SenseTimeExtensionDelegateC1EvE4$_12NS_9allocatorIS6_EEFiRKN9rapidjson15GenericDocumentINS9_4UTF8IcEENS9_19MemoryPoolAllocatorINS9_12CrtAllocatorEEESE_EEEE11target_typeEv', symObjAddr: 0x67B4, symBinAddr: 0x1ED90, symSize: 0xC }
  - { offsetInCU: 0x40697, offset: 0xD8765, size: 0x8, addend: 0x0, symName: __ZN9rapidjson13GenericReaderINS_4UTF8IcEES2_NS_12CrtAllocatorEE5ParseILj0ENS_19GenericStringStreamIS2_EENS_15GenericDocumentIS2_NS_19MemoryPoolAllocatorIS3_EES3_EEEENS_11ParseResultERT0_RT1_, symObjAddr: 0x68D8, symBinAddr: 0x1EEB4, symSize: 0xFC }
  - { offsetInCU: 0x40AF0, offset: 0xD8BBE, size: 0x8, addend: 0x0, symName: __ZN9rapidjson15GenericDocumentINS_4UTF8IcEENS_19MemoryPoolAllocatorINS_12CrtAllocatorEEES4_E16ClearStackOnExitD2Ev, symObjAddr: 0x8348, symBinAddr: 0x20924, symSize: 0x38 }
  - { offsetInCU: 0x40D1C, offset: 0xD8DEA, size: 0x8, addend: 0x0, symName: __ZN9rapidjson13GenericReaderINS_4UTF8IcEES2_NS_12CrtAllocatorEE10ParseValueILj0ENS_19GenericStringStreamIS2_EENS_15GenericDocumentIS2_NS_19MemoryPoolAllocatorIS3_EES3_EEEEvRT0_RT1_, symObjAddr: 0x6A0C, symBinAddr: 0x1EFE8, symSize: 0x60 }
  - { offsetInCU: 0x40D61, offset: 0xD8E2F, size: 0x8, addend: 0x0, symName: __ZN9rapidjson13GenericReaderINS_4UTF8IcEES2_NS_12CrtAllocatorEE10ParseValueILj0ENS_19GenericStringStreamIS2_EENS_15GenericDocumentIS2_NS_19MemoryPoolAllocatorIS3_EES3_EEEEvRT0_RT1_, symObjAddr: 0x6A0C, symBinAddr: 0x1EFE8, symSize: 0x60 }
  - { offsetInCU: 0x40DFB, offset: 0xD8EC9, size: 0x8, addend: 0x0, symName: __ZN9rapidjson8internal5StackINS_12CrtAllocatorEE3PopINS_12GenericValueINS_4UTF8IcEENS_19MemoryPoolAllocatorIS2_EEEEEEPT_m, symObjAddr: 0x69D4, symBinAddr: 0x1EFB0, symSize: 0x38 }
  - { offsetInCU: 0x40E44, offset: 0xD8F12, size: 0x8, addend: 0x0, symName: __ZN9rapidjson13GenericReaderINS_4UTF8IcEES2_NS_12CrtAllocatorEE10ParseValueILj0ENS_19GenericStringStreamIS2_EENS_15GenericDocumentIS2_NS_19MemoryPoolAllocatorIS3_EES3_EEEEvRT0_RT1_, symObjAddr: 0x6A0C, symBinAddr: 0x1EFE8, symSize: 0x60 }
  - { offsetInCU: 0x40E4F, offset: 0xD8F1D, size: 0x8, addend: 0x0, symName: __ZN9rapidjson8internal5StackINS_12CrtAllocatorEE3PopINS_12GenericValueINS_4UTF8IcEENS_19MemoryPoolAllocatorIS2_EEEEEEPT_m.cold.1, symObjAddr: 0x8D38, symBinAddr: 0x92B5A8, symSize: 0x24 }
  - { offsetInCU: 0x40E66, offset: 0xD8F34, size: 0x8, addend: 0x0, symName: __ZN9rapidjson13GenericReaderINS_4UTF8IcEES2_NS_12CrtAllocatorEE10ParseFalseILj0ENS_19GenericStringStreamIS2_EENS_15GenericDocumentIS2_NS_19MemoryPoolAllocatorIS3_EES3_EEEEvRT0_RT1_, symObjAddr: 0x6BC4, symBinAddr: 0x1F1A0, symSize: 0xBC }
  - { offsetInCU: 0x411C1, offset: 0xD928F, size: 0x8, addend: 0x0, symName: __ZN9rapidjson13GenericReaderINS_4UTF8IcEES2_NS_12CrtAllocatorEE11ParseStringILj0ENS_19GenericStringStreamIS2_EENS_15GenericDocumentIS2_NS_19MemoryPoolAllocatorIS3_EES3_EEEEvRT0_RT1_b, symObjAddr: 0x6C80, symBinAddr: 0x1F25C, symSize: 0x124 }
  - { offsetInCU: 0x411E7, offset: 0xD92B5, size: 0x8, addend: 0x0, symName: __ZN9rapidjson13GenericReaderINS_4UTF8IcEES2_NS_12CrtAllocatorEE9ParseNullILj0ENS_19GenericStringStreamIS2_EENS_15GenericDocumentIS2_NS_19MemoryPoolAllocatorIS3_EES3_EEEEvRT0_RT1_, symObjAddr: 0x6A7C, symBinAddr: 0x1F058, symSize: 0xA0 }
  - { offsetInCU: 0x414BB, offset: 0xD9589, size: 0x8, addend: 0x0, symName: __ZN9rapidjson13GenericReaderINS_4UTF8IcEES2_NS_12CrtAllocatorEE9ParseTrueILj0ENS_19GenericStringStreamIS2_EENS_15GenericDocumentIS2_NS_19MemoryPoolAllocatorIS3_EES3_EEEEvRT0_RT1_, symObjAddr: 0x6B1C, symBinAddr: 0x1F0F8, symSize: 0xA8 }
  - { offsetInCU: 0x414E1, offset: 0xD95AF, size: 0x8, addend: 0x0, symName: __ZN9rapidjson13GenericReaderINS_4UTF8IcEES2_NS_12CrtAllocatorEE11ParseStringILj0ENS_19GenericStringStreamIS2_EENS_15GenericDocumentIS2_NS_19MemoryPoolAllocatorIS3_EES3_EEEEvRT0_RT1_b, symObjAddr: 0x6C80, symBinAddr: 0x1F25C, symSize: 0x124 }
  - { offsetInCU: 0x41866, offset: 0xD9934, size: 0x8, addend: 0x0, symName: __ZN9rapidjson13GenericReaderINS_4UTF8IcEES2_NS_12CrtAllocatorEE10ParseArrayILj0ENS_19GenericStringStreamIS2_EENS_15GenericDocumentIS2_NS_19MemoryPoolAllocatorIS3_EES3_EEEEvRT0_RT1_, symObjAddr: 0x7018, symBinAddr: 0x1F5F4, symSize: 0x1C8 }
  - { offsetInCU: 0x41EC7, offset: 0xD9F95, size: 0x8, addend: 0x0, symName: __ZN9rapidjson13GenericReaderINS_4UTF8IcEES2_NS_12CrtAllocatorEE11ParseObjectILj0ENS_19GenericStringStreamIS2_EENS_15GenericDocumentIS2_NS_19MemoryPoolAllocatorIS3_EES3_EEEEvRT0_RT1_, symObjAddr: 0x6DA4, symBinAddr: 0x1F380, symSize: 0x274 }
  - { offsetInCU: 0x4278C, offset: 0xDA85A, size: 0x8, addend: 0x0, symName: __ZN9rapidjson13GenericReaderINS_4UTF8IcEES2_NS_12CrtAllocatorEE10ParseArrayILj0ENS_19GenericStringStreamIS2_EENS_15GenericDocumentIS2_NS_19MemoryPoolAllocatorIS3_EES3_EEEEvRT0_RT1_, symObjAddr: 0x7018, symBinAddr: 0x1F5F4, symSize: 0x1C8 }
  - { offsetInCU: 0x427B2, offset: 0xDA880, size: 0x8, addend: 0x0, symName: __ZN9rapidjson13GenericReaderINS_4UTF8IcEES2_NS_12CrtAllocatorEE9ParseTrueILj0ENS_19GenericStringStreamIS2_EENS_15GenericDocumentIS2_NS_19MemoryPoolAllocatorIS3_EES3_EEEEvRT0_RT1_, symObjAddr: 0x6B1C, symBinAddr: 0x1F0F8, symSize: 0xA8 }
  - { offsetInCU: 0x42AAC, offset: 0xDAB7A, size: 0x8, addend: 0x0, symName: __ZN9rapidjson13GenericReaderINS_4UTF8IcEES2_NS_12CrtAllocatorEE10ParseFalseILj0ENS_19GenericStringStreamIS2_EENS_15GenericDocumentIS2_NS_19MemoryPoolAllocatorIS3_EES3_EEEEvRT0_RT1_, symObjAddr: 0x6BC4, symBinAddr: 0x1F1A0, symSize: 0xBC }
  - { offsetInCU: 0x42AD2, offset: 0xDABA0, size: 0x8, addend: 0x0, symName: __ZN9rapidjson13GenericReaderINS_4UTF8IcEES2_NS_12CrtAllocatorEE11ParseNumberILj0ENS_19GenericStringStreamIS2_EENS_15GenericDocumentIS2_NS_19MemoryPoolAllocatorIS3_EES3_EEEEvRT0_RT1_, symObjAddr: 0x71E0, symBinAddr: 0x1F7BC, symSize: 0x7F8 }
  - { offsetInCU: 0x434FC, offset: 0xDB5CA, size: 0x8, addend: 0x0, symName: __ZNK9rapidjson11ParseResult7IsErrorEv, symObjAddr: 0x6A6C, symBinAddr: 0x1F048, symSize: 0x10 }
  - { offsetInCU: 0x435A0, offset: 0xDB66E, size: 0x8, addend: 0x0, symName: __ZN9rapidjson8internal5StackINS_12CrtAllocatorEE4PushINS_12GenericValueINS_4UTF8IcEENS_19MemoryPoolAllocatorIS2_EEEEEEPT_m, symObjAddr: 0x79D8, symBinAddr: 0x1FFB4, symSize: 0x50 }
  - { offsetInCU: 0x43635, offset: 0xDB703, size: 0x8, addend: 0x0, symName: __ZN9rapidjson13GenericReaderINS_4UTF8IcEES2_NS_12CrtAllocatorEE9ParseNullILj0ENS_19GenericStringStreamIS2_EENS_15GenericDocumentIS2_NS_19MemoryPoolAllocatorIS3_EES3_EEEEvRT0_RT1_.cold.2, symObjAddr: 0x8D84, symBinAddr: 0x92B5F4, symSize: 0x28 }
  - { offsetInCU: 0x4364D, offset: 0xDB71B, size: 0x8, addend: 0x0, symName: __ZN9rapidjson13GenericReaderINS_4UTF8IcEES2_NS_12CrtAllocatorEE9ParseNullILj0ENS_19GenericStringStreamIS2_EENS_15GenericDocumentIS2_NS_19MemoryPoolAllocatorIS3_EES3_EEEEvRT0_RT1_.cold.1, symObjAddr: 0x8D5C, symBinAddr: 0x92B5CC, symSize: 0x28 }
  - { offsetInCU: 0x436FA, offset: 0xDB7C8, size: 0x8, addend: 0x0, symName: __ZN9rapidjson13GenericReaderINS_4UTF8IcEES2_NS_12CrtAllocatorEE9ParseTrueILj0ENS_19GenericStringStreamIS2_EENS_15GenericDocumentIS2_NS_19MemoryPoolAllocatorIS3_EES3_EEEEvRT0_RT1_.cold.2, symObjAddr: 0x8DD4, symBinAddr: 0x92B644, symSize: 0x28 }
  - { offsetInCU: 0x43712, offset: 0xDB7E0, size: 0x8, addend: 0x0, symName: __ZN9rapidjson13GenericReaderINS_4UTF8IcEES2_NS_12CrtAllocatorEE9ParseTrueILj0ENS_19GenericStringStreamIS2_EENS_15GenericDocumentIS2_NS_19MemoryPoolAllocatorIS3_EES3_EEEEvRT0_RT1_.cold.1, symObjAddr: 0x8DAC, symBinAddr: 0x92B61C, symSize: 0x28 }
  - { offsetInCU: 0x4372A, offset: 0xDB7F8, size: 0x8, addend: 0x0, symName: __ZN9rapidjson13GenericReaderINS_4UTF8IcEES2_NS_12CrtAllocatorEE10ParseFalseILj0ENS_19GenericStringStreamIS2_EENS_15GenericDocumentIS2_NS_19MemoryPoolAllocatorIS3_EES3_EEEEvRT0_RT1_.cold.2, symObjAddr: 0x8E24, symBinAddr: 0x92B694, symSize: 0x28 }
  - { offsetInCU: 0x43742, offset: 0xDB810, size: 0x8, addend: 0x0, symName: __ZN9rapidjson13GenericReaderINS_4UTF8IcEES2_NS_12CrtAllocatorEE10ParseFalseILj0ENS_19GenericStringStreamIS2_EENS_15GenericDocumentIS2_NS_19MemoryPoolAllocatorIS3_EES3_EEEEvRT0_RT1_.cold.1, symObjAddr: 0x8DFC, symBinAddr: 0x92B66C, symSize: 0x28 }
  - { offsetInCU: 0x437C5, offset: 0xDB893, size: 0x8, addend: 0x0, symName: __ZN9rapidjson13GenericReaderINS_4UTF8IcEES2_NS_12CrtAllocatorEE11StackStreamIcE3PopEv, symObjAddr: 0x7CF8, symBinAddr: 0x202D4, symSize: 0x34 }
  - { offsetInCU: 0x43828, offset: 0xDB8F6, size: 0x8, addend: 0x0, symName: __ZN9rapidjson15GenericDocumentINS_4UTF8IcEENS_19MemoryPoolAllocatorINS_12CrtAllocatorEEES4_E6StringEPKcjb, symObjAddr: 0x7D2C, symBinAddr: 0x20308, symSize: 0x6C }
  - { offsetInCU: 0x43832, offset: 0xDB900, size: 0x8, addend: 0x0, symName: __ZN9rapidjson15GenericDocumentINS_4UTF8IcEENS_19MemoryPoolAllocatorINS_12CrtAllocatorEEES4_E6StringEPKcjb, symObjAddr: 0x7D2C, symBinAddr: 0x20308, symSize: 0x6C }
  - { offsetInCU: 0x4394F, offset: 0xDBA1D, size: 0x8, addend: 0x0, symName: __ZN9rapidjson13GenericReaderINS_4UTF8IcEES2_NS_12CrtAllocatorEE9ParseHex4INS_19GenericStringStreamIS2_EEEEjRT_m, symObjAddr: 0x7D98, symBinAddr: 0x20374, symSize: 0xA0 }
  - { offsetInCU: 0x4396F, offset: 0xDBA3D, size: 0x8, addend: 0x0, symName: __ZN9rapidjson15GenericDocumentINS_4UTF8IcEENS_19MemoryPoolAllocatorINS_12CrtAllocatorEEES4_E9EndObjectEj, symObjAddr: 0x80EC, symBinAddr: 0x206C8, symSize: 0xA0 }
  - { offsetInCU: 0x43B6B, offset: 0xDBC39, size: 0x8, addend: 0x0, symName: __ZN9rapidjson8internal5StackINS_12CrtAllocatorEE3PopINS_13GenericMemberINS_4UTF8IcEENS_19MemoryPoolAllocatorIS2_EEEEEEPT_m, symObjAddr: 0x818C, symBinAddr: 0x20768, symSize: 0x38 }
  - { offsetInCU: 0x43B76, offset: 0xDBC44, size: 0x8, addend: 0x0, symName: __ZN9rapidjson13GenericReaderINS_4UTF8IcEES2_NS_12CrtAllocatorEE11ParseObjectILj0ENS_19GenericStringStreamIS2_EENS_15GenericDocumentIS2_NS_19MemoryPoolAllocatorIS3_EES3_EEEEvRT0_RT1_.cold.3, symObjAddr: 0x8E9C, symBinAddr: 0x92B70C, symSize: 0x28 }
  - { offsetInCU: 0x43B8E, offset: 0xDBC5C, size: 0x8, addend: 0x0, symName: __ZN9rapidjson13GenericReaderINS_4UTF8IcEES2_NS_12CrtAllocatorEE11ParseObjectILj0ENS_19GenericStringStreamIS2_EENS_15GenericDocumentIS2_NS_19MemoryPoolAllocatorIS3_EES3_EEEEvRT0_RT1_.cold.2, symObjAddr: 0x8E74, symBinAddr: 0x92B6E4, symSize: 0x28 }
  - { offsetInCU: 0x43BA6, offset: 0xDBC74, size: 0x8, addend: 0x0, symName: __ZN9rapidjson13GenericReaderINS_4UTF8IcEES2_NS_12CrtAllocatorEE11ParseObjectILj0ENS_19GenericStringStreamIS2_EENS_15GenericDocumentIS2_NS_19MemoryPoolAllocatorIS3_EES3_EEEEvRT0_RT1_.cold.1, symObjAddr: 0x8E4C, symBinAddr: 0x92B6BC, symSize: 0x28 }
  - { offsetInCU: 0x43BD3, offset: 0xDBCA1, size: 0x8, addend: 0x0, symName: __ZN9rapidjson15GenericDocumentINS_4UTF8IcEENS_19MemoryPoolAllocatorINS_12CrtAllocatorEEES4_E8EndArrayEj, symObjAddr: 0x81C4, symBinAddr: 0x207A0, symSize: 0xA0 }
  - { offsetInCU: 0x43D1B, offset: 0xDBDE9, size: 0x8, addend: 0x0, symName: __ZN9rapidjson15GenericDocumentINS_4UTF8IcEENS_19MemoryPoolAllocatorINS_12CrtAllocatorEEES4_E5Int64Ex, symObjAddr: 0x8264, symBinAddr: 0x20840, symSize: 0x7C }
  - { offsetInCU: 0x43D26, offset: 0xDBDF4, size: 0x8, addend: 0x0, symName: __ZN9rapidjson13GenericReaderINS_4UTF8IcEES2_NS_12CrtAllocatorEE10ParseArrayILj0ENS_19GenericStringStreamIS2_EENS_15GenericDocumentIS2_NS_19MemoryPoolAllocatorIS3_EES3_EEEEvRT0_RT1_.cold.3, symObjAddr: 0x8F14, symBinAddr: 0x92B784, symSize: 0x28 }
  - { offsetInCU: 0x43D3E, offset: 0xDBE0C, size: 0x8, addend: 0x0, symName: __ZN9rapidjson13GenericReaderINS_4UTF8IcEES2_NS_12CrtAllocatorEE10ParseArrayILj0ENS_19GenericStringStreamIS2_EENS_15GenericDocumentIS2_NS_19MemoryPoolAllocatorIS3_EES3_EEEEvRT0_RT1_.cold.2, symObjAddr: 0x8EEC, symBinAddr: 0x92B75C, symSize: 0x28 }
  - { offsetInCU: 0x43D56, offset: 0xDBE24, size: 0x8, addend: 0x0, symName: __ZN9rapidjson13GenericReaderINS_4UTF8IcEES2_NS_12CrtAllocatorEE10ParseArrayILj0ENS_19GenericStringStreamIS2_EENS_15GenericDocumentIS2_NS_19MemoryPoolAllocatorIS3_EES3_EEEEvRT0_RT1_.cold.1, symObjAddr: 0x8EC4, symBinAddr: 0x92B734, symSize: 0x28 }
  - { offsetInCU: 0x43EF9, offset: 0xDBFC7, size: 0x8, addend: 0x0, symName: __ZN9rapidjson15GenericDocumentINS_4UTF8IcEENS_19MemoryPoolAllocatorINS_12CrtAllocatorEEES4_E5Int64Ex, symObjAddr: 0x8264, symBinAddr: 0x20840, symSize: 0x7C }
  - { offsetInCU: 0x43F8E, offset: 0xDC05C, size: 0x8, addend: 0x0, symName: __ZN9rapidjson15GenericDocumentINS_4UTF8IcEENS_19MemoryPoolAllocatorINS_12CrtAllocatorEEES4_E6Uint64Ey, symObjAddr: 0x82E0, symBinAddr: 0x208BC, symSize: 0x68 }
  - { offsetInCU: 0x4404D, offset: 0xDC11B, size: 0x8, addend: 0x0, symName: __ZN9rapidjson8internal5StackINS_12CrtAllocatorEE10PushUnsafeINS_12GenericValueINS_4UTF8IcEENS_19MemoryPoolAllocatorIS2_EEEEEEPT_m, symObjAddr: 0x7A28, symBinAddr: 0x20004, symSize: 0x44 }
  - { offsetInCU: 0x440A3, offset: 0xDC171, size: 0x8, addend: 0x0, symName: __ZN9rapidjson8internal5StackINS_12CrtAllocatorEE6ExpandINS_12GenericValueINS_4UTF8IcEENS_19MemoryPoolAllocatorIS2_EEEEEEvm, symObjAddr: 0x7A6C, symBinAddr: 0x20048, symSize: 0x78 }
  - { offsetInCU: 0x440B6, offset: 0xDC184, size: 0x8, addend: 0x0, symName: __ZN9rapidjson8internal5StackINS_12CrtAllocatorEE6ExpandINS_12GenericValueINS_4UTF8IcEENS_19MemoryPoolAllocatorIS2_EEEEEEvm, symObjAddr: 0x7A6C, symBinAddr: 0x20048, symSize: 0x78 }
  - { offsetInCU: 0x44162, offset: 0xDC230, size: 0x8, addend: 0x0, symName: __ZN9rapidjson8internal5StackINS_12CrtAllocatorEE10PushUnsafeINS_12GenericValueINS_4UTF8IcEENS_19MemoryPoolAllocatorIS2_EEEEEEPT_m.cold.1, symObjAddr: 0x8F3C, symBinAddr: 0x92B7AC, symSize: 0x24 }
  - { offsetInCU: 0x4417A, offset: 0xDC248, size: 0x8, addend: 0x0, symName: __ZN9rapidjson8internal5StackINS_12CrtAllocatorEE10PushUnsafeINS_12GenericValueINS_4UTF8IcEENS_19MemoryPoolAllocatorIS2_EEEEEEPT_m.cold.2, symObjAddr: 0x8F60, symBinAddr: 0x92B7D0, symSize: 0x24 }
  - { offsetInCU: 0x441E5, offset: 0xDC2B3, size: 0x8, addend: 0x0, symName: __ZN9rapidjson13GenericReaderINS_4UTF8IcEES2_NS_12CrtAllocatorEE9ParseHex4INS_19GenericStringStreamIS2_EEEEjRT_m, symObjAddr: 0x7D98, symBinAddr: 0x20374, symSize: 0xA0 }
  - { offsetInCU: 0x4433F, offset: 0xDC40D, size: 0x8, addend: 0x0, symName: __ZN9rapidjson4UTF8IcE6EncodeINS_13GenericReaderIS1_S1_NS_12CrtAllocatorEE11StackStreamIcEEEEvRT_j, symObjAddr: 0x7E38, symBinAddr: 0x20414, symSize: 0x160 }
  - { offsetInCU: 0x44353, offset: 0xDC421, size: 0x8, addend: 0x0, symName: __ZN9rapidjson4UTF8IcE6EncodeINS_13GenericReaderIS1_S1_NS_12CrtAllocatorEE11StackStreamIcEEEEvRT_j, symObjAddr: 0x7E38, symBinAddr: 0x20414, symSize: 0x160 }
  - { offsetInCU: 0x444BF, offset: 0xDC58D, size: 0x8, addend: 0x0, symName: __ZN9rapidjson12GenericValueINS_4UTF8IcEENS_19MemoryPoolAllocatorINS_12CrtAllocatorEEEEC2EPKcjRS5_, symObjAddr: 0x7F98, symBinAddr: 0x20574, symSize: 0x64 }
  - { offsetInCU: 0x444D3, offset: 0xDC5A1, size: 0x8, addend: 0x0, symName: __ZN9rapidjson13GenericReaderINS_4UTF8IcEES2_NS_12CrtAllocatorEE19ParseStringToStreamILj0ES2_S2_NS_19GenericStringStreamIS2_EENS4_11StackStreamIcEEEEvRT2_RT3_.cold.2, symObjAddr: 0x8FAC, symBinAddr: 0x92B81C, symSize: 0x28 }
  - { offsetInCU: 0x444EB, offset: 0xDC5B9, size: 0x8, addend: 0x0, symName: __ZN9rapidjson13GenericReaderINS_4UTF8IcEES2_NS_12CrtAllocatorEE19ParseStringToStreamILj0ES2_S2_NS_19GenericStringStreamIS2_EENS4_11StackStreamIcEEEEvRT2_RT3_.cold.1, symObjAddr: 0x8F84, symBinAddr: 0x92B7F4, symSize: 0x28 }
  - { offsetInCU: 0x44503, offset: 0xDC5D1, size: 0x8, addend: 0x0, symName: __ZN9rapidjson13GenericReaderINS_4UTF8IcEES2_NS_12CrtAllocatorEE19ParseStringToStreamILj0ES2_S2_NS_19GenericStringStreamIS2_EENS4_11StackStreamIcEEEEvRT2_RT3_.cold.3, symObjAddr: 0x8FD4, symBinAddr: 0x92B844, symSize: 0x28 }
  - { offsetInCU: 0x4451B, offset: 0xDC5E9, size: 0x8, addend: 0x0, symName: __ZN9rapidjson13GenericReaderINS_4UTF8IcEES2_NS_12CrtAllocatorEE11StackStreamIcE3PopEv.cold.1, symObjAddr: 0x8FFC, symBinAddr: 0x92B86C, symSize: 0x24 }
  - { offsetInCU: 0x445BA, offset: 0xDC688, size: 0x8, addend: 0x0, symName: __ZN9rapidjson12GenericValueINS_4UTF8IcEENS_19MemoryPoolAllocatorINS_12CrtAllocatorEEEEC2EPKcjRS5_, symObjAddr: 0x7F98, symBinAddr: 0x20574, symSize: 0x64 }
  - { offsetInCU: 0x446A9, offset: 0xDC777, size: 0x8, addend: 0x0, symName: __ZN9rapidjson12GenericValueINS_4UTF8IcEENS_19MemoryPoolAllocatorINS_12CrtAllocatorEEEE12SetStringRawENS_16GenericStringRefIcEERS5_, symObjAddr: 0x7FFC, symBinAddr: 0x205D8, symSize: 0x88 }
  - { offsetInCU: 0x446B4, offset: 0xDC782, size: 0x8, addend: 0x0, symName: __ZN9rapidjson12GenericValueINS_4UTF8IcEENS_19MemoryPoolAllocatorINS_12CrtAllocatorEEEEC2EPKcj, symObjAddr: 0x8084, symBinAddr: 0x20660, symSize: 0x68 }
  - { offsetInCU: 0x44786, offset: 0xDC854, size: 0x8, addend: 0x0, symName: __ZN9rapidjson15GenericDocumentINS_4UTF8IcEENS_19MemoryPoolAllocatorINS_12CrtAllocatorEEES4_E6StringEPKcjb.cold.1, symObjAddr: 0x9020, symBinAddr: 0x92B890, symSize: 0x24 }
  - { offsetInCU: 0x447B5, offset: 0xDC883, size: 0x8, addend: 0x0, symName: __ZN9rapidjson13GenericReaderINS_4UTF8IcEES2_NS_12CrtAllocatorEE9ParseHex4INS_19GenericStringStreamIS2_EEEEjRT_m.cold.1, symObjAddr: 0x9044, symBinAddr: 0x92B8B4, symSize: 0x28 }
  - { offsetInCU: 0x447CD, offset: 0xDC89B, size: 0x8, addend: 0x0, symName: __ZN9rapidjson4UTF8IcE6EncodeINS_13GenericReaderIS1_S1_NS_12CrtAllocatorEE11StackStreamIcEEEEvRT_j.cold.1, symObjAddr: 0x906C, symBinAddr: 0x92B8DC, symSize: 0x28 }
  - { offsetInCU: 0x44848, offset: 0xDC916, size: 0x8, addend: 0x0, symName: __ZN9rapidjson12GenericValueINS_4UTF8IcEENS_19MemoryPoolAllocatorINS_12CrtAllocatorEEEE12SetStringRawENS_16GenericStringRefIcEERS5_, symObjAddr: 0x7FFC, symBinAddr: 0x205D8, symSize: 0x88 }
  - { offsetInCU: 0x44911, offset: 0xDC9DF, size: 0x8, addend: 0x0, symName: __ZN9rapidjson12GenericValueINS_4UTF8IcEENS_19MemoryPoolAllocatorINS_12CrtAllocatorEEEEC2EPKcjRS5_.cold.1, symObjAddr: 0x9094, symBinAddr: 0x92B904, symSize: 0x28 }
  - { offsetInCU: 0x44AC2, offset: 0xDCB90, size: 0x8, addend: 0x0, symName: __ZN9rapidjson8internal5StackINS_12CrtAllocatorEE3PopINS_13GenericMemberINS_4UTF8IcEENS_19MemoryPoolAllocatorIS2_EEEEEEPT_m, symObjAddr: 0x818C, symBinAddr: 0x20768, symSize: 0x38 }
  - { offsetInCU: 0x44B18, offset: 0xDCBE6, size: 0x8, addend: 0x0, symName: __ZN9rapidjson15GenericDocumentINS_4UTF8IcEENS_19MemoryPoolAllocatorINS_12CrtAllocatorEEES4_E8EndArrayEj, symObjAddr: 0x81C4, symBinAddr: 0x207A0, symSize: 0xA0 }
  - { offsetInCU: 0x44B2C, offset: 0xDCBFA, size: 0x8, addend: 0x0, symName: __ZN9rapidjson15GenericDocumentINS_4UTF8IcEENS_19MemoryPoolAllocatorINS_12CrtAllocatorEEES4_E9EndObjectEj.cold.1, symObjAddr: 0x90BC, symBinAddr: 0x92B92C, symSize: 0x24 }
  - { offsetInCU: 0x44B5B, offset: 0xDCC29, size: 0x8, addend: 0x0, symName: __ZN9rapidjson15GenericDocumentINS_4UTF8IcEENS_19MemoryPoolAllocatorINS_12CrtAllocatorEEES4_E9EndObjectEj.cold.2, symObjAddr: 0x90E0, symBinAddr: 0x92B950, symSize: 0x24 }
  - { offsetInCU: 0x44B8A, offset: 0xDCC58, size: 0x8, addend: 0x0, symName: __ZN9rapidjson8internal5StackINS_12CrtAllocatorEE3PopINS_13GenericMemberINS_4UTF8IcEENS_19MemoryPoolAllocatorIS2_EEEEEEPT_m.cold.1, symObjAddr: 0x9104, symBinAddr: 0x92B974, symSize: 0x24 }
  - { offsetInCU: 0x44C0E, offset: 0xDCCDC, size: 0x8, addend: 0x0, symName: __ZN9rapidjson15GenericDocumentINS_4UTF8IcEENS_19MemoryPoolAllocatorINS_12CrtAllocatorEEES4_E8EndArrayEj.cold.1, symObjAddr: 0x9128, symBinAddr: 0x92B998, symSize: 0x24 }
  - { offsetInCU: 0x44C3D, offset: 0xDCD0B, size: 0x8, addend: 0x0, symName: __ZN9rapidjson15GenericDocumentINS_4UTF8IcEENS_19MemoryPoolAllocatorINS_12CrtAllocatorEEES4_E8EndArrayEj.cold.2, symObjAddr: 0x914C, symBinAddr: 0x92B9BC, symSize: 0x24 }
  - { offsetInCU: 0x44D19, offset: 0xDCDE7, size: 0x8, addend: 0x0, symName: __ZN9rapidjson8internal5StackINS_12CrtAllocatorEE11ShrinkToFitEv, symObjAddr: 0x8380, symBinAddr: 0x2095C, symSize: 0x48 }
  - { offsetInCU: 0x44DF4, offset: 0xDCEC2, size: 0x8, addend: 0x0, symName: _OUTLINED_FUNCTION_0, symObjAddr: 0x9170, symBinAddr: 0x20A20, symSize: 0x8 }
  - { offsetInCU: 0x44E0C, offset: 0xDCEDA, size: 0x8, addend: 0x0, symName: _OUTLINED_FUNCTION_1, symObjAddr: 0x9178, symBinAddr: 0x20A28, symSize: 0x8 }
  - { offsetInCU: 0x44E24, offset: 0xDCEF2, size: 0x8, addend: 0x0, symName: _OUTLINED_FUNCTION_2, symObjAddr: 0x9180, symBinAddr: 0x20A30, symSize: 0x8 }
  - { offsetInCU: 0x44E3C, offset: 0xDCF0A, size: 0x8, addend: 0x0, symName: _OUTLINED_FUNCTION_3, symObjAddr: 0x9188, symBinAddr: 0x20A38, symSize: 0x8 }
  - { offsetInCU: 0x44E54, offset: 0xDCF22, size: 0x8, addend: 0x0, symName: _OUTLINED_FUNCTION_4, symObjAddr: 0x9190, symBinAddr: 0x20A40, symSize: 0x8 }
  - { offsetInCU: 0x44E6C, offset: 0xDCF3A, size: 0x8, addend: 0x0, symName: _OUTLINED_FUNCTION_5, symObjAddr: 0x9198, symBinAddr: 0x20A48, symSize: 0x8 }
...
